
kernel:     file format elf32-i386

Disassembly of section .text:

00100000 <brelse>:
}

// Release the buffer b.
void
brelse(struct buf *b)
{
  100000:	55                   	push   %ebp
  100001:	89 e5                	mov    %esp,%ebp
  100003:	53                   	push   %ebx
  100004:	83 ec 04             	sub    $0x4,%esp
  100007:	8b 5d 08             	mov    0x8(%ebp),%ebx
  if((b->flags & B_BUSY) == 0)
  10000a:	f6 03 01             	testb  $0x1,(%ebx)
  10000d:	74 54                	je     100063 <brelse+0x63>
    panic("brelse");

  acquire(&bcache.lock);
  10000f:	c7 04 24 60 78 10 00 	movl   $0x107860,(%esp)
  100016:	e8 f5 39 00 00       	call   103a10 <acquire>

  b->next->prev = b->prev;
  10001b:	8b 53 10             	mov    0x10(%ebx),%edx
  10001e:	8b 43 0c             	mov    0xc(%ebx),%eax
  b->next = bcache.head.next;
  b->prev = &bcache.head;
  bcache.head.next->prev = b;
  bcache.head.next = b;

  b->flags &= ~B_BUSY;
  100021:	83 23 fe             	andl   $0xfffffffe,(%ebx)
  if((b->flags & B_BUSY) == 0)
    panic("brelse");

  acquire(&bcache.lock);

  b->next->prev = b->prev;
  100024:	89 42 0c             	mov    %eax,0xc(%edx)
  b->prev->next = b->next;
  100027:	8b 43 0c             	mov    0xc(%ebx),%eax
  b->next = bcache.head.next;
  b->prev = &bcache.head;
  10002a:	c7 43 0c 84 8d 10 00 	movl   $0x108d84,0xc(%ebx)
    panic("brelse");

  acquire(&bcache.lock);

  b->next->prev = b->prev;
  b->prev->next = b->next;
  100031:	89 50 10             	mov    %edx,0x10(%eax)
  b->next = bcache.head.next;
  100034:	a1 94 8d 10 00       	mov    0x108d94,%eax
  100039:	89 43 10             	mov    %eax,0x10(%ebx)
  b->prev = &bcache.head;
  bcache.head.next->prev = b;
  10003c:	a1 94 8d 10 00       	mov    0x108d94,%eax
  bcache.head.next = b;
  100041:	89 1d 94 8d 10 00    	mov    %ebx,0x108d94

  b->next->prev = b->prev;
  b->prev->next = b->next;
  b->next = bcache.head.next;
  b->prev = &bcache.head;
  bcache.head.next->prev = b;
  100047:	89 58 0c             	mov    %ebx,0xc(%eax)
  bcache.head.next = b;

  b->flags &= ~B_BUSY;
  wakeup(b);
  10004a:	89 1c 24             	mov    %ebx,(%esp)
  10004d:	e8 ae 2f 00 00       	call   103000 <wakeup>

  release(&bcache.lock);
  100052:	c7 45 08 60 78 10 00 	movl   $0x107860,0x8(%ebp)
}
  100059:	83 c4 04             	add    $0x4,%esp
  10005c:	5b                   	pop    %ebx
  10005d:	5d                   	pop    %ebp
  bcache.head.next = b;

  b->flags &= ~B_BUSY;
  wakeup(b);

  release(&bcache.lock);
  10005e:	e9 6d 39 00 00       	jmp    1039d0 <release>
// Release the buffer b.
void
brelse(struct buf *b)
{
  if((b->flags & B_BUSY) == 0)
    panic("brelse");
  100063:	c7 04 24 a0 61 10 00 	movl   $0x1061a0,(%esp)
  10006a:	e8 11 08 00 00       	call   100880 <panic>
  10006f:	90                   	nop    

00100070 <bwrite>:
}

// Write b's contents to disk.  Must be locked.
void
bwrite(struct buf *b)
{
  100070:	55                   	push   %ebp
  100071:	89 e5                	mov    %esp,%ebp
  100073:	83 ec 08             	sub    $0x8,%esp
  100076:	8b 55 08             	mov    0x8(%ebp),%edx
  if((b->flags & B_BUSY) == 0)
  100079:	8b 02                	mov    (%edx),%eax
  10007b:	a8 01                	test   $0x1,%al
  10007d:	74 0e                	je     10008d <bwrite+0x1d>
    panic("bwrite");
  b->flags |= B_DIRTY;
  10007f:	83 c8 04             	or     $0x4,%eax
  100082:	89 02                	mov    %eax,(%edx)
  iderw(b);
  100084:	89 55 08             	mov    %edx,0x8(%ebp)
}
  100087:	c9                   	leave  
bwrite(struct buf *b)
{
  if((b->flags & B_BUSY) == 0)
    panic("bwrite");
  b->flags |= B_DIRTY;
  iderw(b);
  100088:	e9 d3 1d 00 00       	jmp    101e60 <iderw>
// Write b's contents to disk.  Must be locked.
void
bwrite(struct buf *b)
{
  if((b->flags & B_BUSY) == 0)
    panic("bwrite");
  10008d:	c7 04 24 a7 61 10 00 	movl   $0x1061a7,(%esp)
  100094:	e8 e7 07 00 00       	call   100880 <panic>
  100099:	8d b4 26 00 00 00 00 	lea    0x0(%esi),%esi

001000a0 <bread>:
}

// Return a B_BUSY buf with the contents of the indicated disk sector.
struct buf*
bread(uint dev, uint sector)
{
  1000a0:	55                   	push   %ebp
  1000a1:	89 e5                	mov    %esp,%ebp
  1000a3:	57                   	push   %edi
  1000a4:	56                   	push   %esi
  1000a5:	53                   	push   %ebx
  1000a6:	83 ec 0c             	sub    $0xc,%esp
  1000a9:	8b 75 08             	mov    0x8(%ebp),%esi
  1000ac:	8b 7d 0c             	mov    0xc(%ebp),%edi
static struct buf*
bget(uint dev, uint sector)
{
  struct buf *b;

  acquire(&bcache.lock);
  1000af:	c7 04 24 60 78 10 00 	movl   $0x107860,(%esp)
  1000b6:	e8 55 39 00 00       	call   103a10 <acquire>

 loop:
  // Try for cached block.
  for(b = bcache.head.next; b != &bcache.head; b = b->next){
  1000bb:	8b 1d 94 8d 10 00    	mov    0x108d94,%ebx
  1000c1:	81 fb 84 8d 10 00    	cmp    $0x108d84,%ebx
  1000c7:	75 12                	jne    1000db <bread+0x3b>
  1000c9:	eb 34                	jmp    1000ff <bread+0x5f>
  1000cb:	90                   	nop    
  1000cc:	8d 74 26 00          	lea    0x0(%esi),%esi
  1000d0:	8b 5b 10             	mov    0x10(%ebx),%ebx
  1000d3:	81 fb 84 8d 10 00    	cmp    $0x108d84,%ebx
  1000d9:	74 24                	je     1000ff <bread+0x5f>
    if(b->dev == dev && b->sector == sector){
  1000db:	3b 73 04             	cmp    0x4(%ebx),%esi
  1000de:	66 90                	xchg   %ax,%ax
  1000e0:	75 ee                	jne    1000d0 <bread+0x30>
  1000e2:	3b 7b 08             	cmp    0x8(%ebx),%edi
  1000e5:	75 e9                	jne    1000d0 <bread+0x30>
      if(!(b->flags & B_BUSY)){
  1000e7:	8b 03                	mov    (%ebx),%eax
  1000e9:	a8 01                	test   $0x1,%al
  1000eb:	74 7a                	je     100167 <bread+0xc7>
        b->flags |= B_BUSY;
        release(&bcache.lock);
        return b;
      }
      sleep(b, &bcache.lock);
  1000ed:	c7 44 24 04 60 78 10 	movl   $0x107860,0x4(%esp)
  1000f4:	00 
  1000f5:	89 1c 24             	mov    %ebx,(%esp)
  1000f8:	e8 f3 2f 00 00       	call   1030f0 <sleep>
  1000fd:	eb bc                	jmp    1000bb <bread+0x1b>
      goto loop;
    }
  }

  // Allocate fresh block.
  for(b = bcache.head.prev; b != &bcache.head; b = b->prev){
  1000ff:	8b 1d 90 8d 10 00    	mov    0x108d90,%ebx
  100105:	81 fb 84 8d 10 00    	cmp    $0x108d84,%ebx
  10010b:	75 0e                	jne    10011b <bread+0x7b>
  10010d:	eb 4c                	jmp    10015b <bread+0xbb>
  10010f:	90                   	nop    
  100110:	8b 5b 0c             	mov    0xc(%ebx),%ebx
  100113:	81 fb 84 8d 10 00    	cmp    $0x108d84,%ebx
  100119:	74 40                	je     10015b <bread+0xbb>
    if((b->flags & B_BUSY) == 0){
  10011b:	f6 03 01             	testb  $0x1,(%ebx)
  10011e:	66 90                	xchg   %ax,%ax
  100120:	75 ee                	jne    100110 <bread+0x70>
      b->dev = dev;
  100122:	89 73 04             	mov    %esi,0x4(%ebx)
      b->sector = sector;
  100125:	89 7b 08             	mov    %edi,0x8(%ebx)
      b->flags = B_BUSY;
  100128:	c7 03 01 00 00 00    	movl   $0x1,(%ebx)
      release(&bcache.lock);
  10012e:	c7 04 24 60 78 10 00 	movl   $0x107860,(%esp)
  100135:	e8 96 38 00 00       	call   1039d0 <release>
bread(uint dev, uint sector)
{
  struct buf *b;

  b = bget(dev, sector);
  if(!(b->flags & B_VALID))
  10013a:	f6 03 02             	testb  $0x2,(%ebx)
  10013d:	74 0a                	je     100149 <bread+0xa9>
    iderw(b);
  return b;
}
  10013f:	83 c4 0c             	add    $0xc,%esp
  100142:	89 d8                	mov    %ebx,%eax
  100144:	5b                   	pop    %ebx
  100145:	5e                   	pop    %esi
  100146:	5f                   	pop    %edi
  100147:	5d                   	pop    %ebp
  100148:	c3                   	ret    
{
  struct buf *b;

  b = bget(dev, sector);
  if(!(b->flags & B_VALID))
    iderw(b);
  100149:	89 1c 24             	mov    %ebx,(%esp)
  10014c:	e8 0f 1d 00 00       	call   101e60 <iderw>
  return b;
}
  100151:	83 c4 0c             	add    $0xc,%esp
  100154:	89 d8                	mov    %ebx,%eax
  100156:	5b                   	pop    %ebx
  100157:	5e                   	pop    %esi
  100158:	5f                   	pop    %edi
  100159:	5d                   	pop    %ebp
  10015a:	c3                   	ret    
      b->flags = B_BUSY;
      release(&bcache.lock);
      return b;
    }
  }
  panic("bget: no buffers");
  10015b:	c7 04 24 ae 61 10 00 	movl   $0x1061ae,(%esp)
  100162:	e8 19 07 00 00       	call   100880 <panic>
 loop:
  // Try for cached block.
  for(b = bcache.head.next; b != &bcache.head; b = b->next){
    if(b->dev == dev && b->sector == sector){
      if(!(b->flags & B_BUSY)){
        b->flags |= B_BUSY;
  100167:	83 c8 01             	or     $0x1,%eax
  10016a:	89 03                	mov    %eax,(%ebx)
        release(&bcache.lock);
  10016c:	c7 04 24 60 78 10 00 	movl   $0x107860,(%esp)
  100173:	e8 58 38 00 00       	call   1039d0 <release>
  100178:	eb c0                	jmp    10013a <bread+0x9a>
  10017a:	8d b6 00 00 00 00    	lea    0x0(%esi),%esi

00100180 <binit>:
  struct buf head;
} bcache;

void
binit(void)
{
  100180:	55                   	push   %ebp
  100181:	89 e5                	mov    %esp,%ebp
  100183:	83 ec 08             	sub    $0x8,%esp
  struct buf *b;

  initlock(&bcache.lock, "bcache");
  100186:	c7 44 24 04 bf 61 10 	movl   $0x1061bf,0x4(%esp)
  10018d:	00 
  10018e:	c7 04 24 60 78 10 00 	movl   $0x107860,(%esp)
  100195:	e8 f6 36 00 00       	call   103890 <initlock>

  // Create linked list of buffers
  bcache.head.prev = &bcache.head;
  bcache.head.next = &bcache.head;
  10019a:	ba 84 8d 10 00       	mov    $0x108d84,%edx
  10019f:	b8 94 78 10 00       	mov    $0x107894,%eax
  struct buf *b;

  initlock(&bcache.lock, "bcache");

  // Create linked list of buffers
  bcache.head.prev = &bcache.head;
  1001a4:	c7 05 90 8d 10 00 84 	movl   $0x108d84,0x108d90
  1001ab:	8d 10 00 
  bcache.head.next = &bcache.head;
  1001ae:	89 15 94 8d 10 00    	mov    %edx,0x108d94
  for(b = bcache.buf; b < bcache.buf+NBUF; b++){
    b->next = bcache.head.next;
  1001b4:	89 50 10             	mov    %edx,0x10(%eax)
    b->prev = &bcache.head;
    b->dev = -1;
    bcache.head.next->prev = b;
  1001b7:	8b 15 94 8d 10 00    	mov    0x108d94,%edx
  // Create linked list of buffers
  bcache.head.prev = &bcache.head;
  bcache.head.next = &bcache.head;
  for(b = bcache.buf; b < bcache.buf+NBUF; b++){
    b->next = bcache.head.next;
    b->prev = &bcache.head;
  1001bd:	c7 40 0c 84 8d 10 00 	movl   $0x108d84,0xc(%eax)
    b->dev = -1;
  1001c4:	c7 40 04 ff ff ff ff 	movl   $0xffffffff,0x4(%eax)
    bcache.head.next->prev = b;
    bcache.head.next = b;
  1001cb:	a3 94 8d 10 00       	mov    %eax,0x108d94
  bcache.head.next = &bcache.head;
  for(b = bcache.buf; b < bcache.buf+NBUF; b++){
    b->next = bcache.head.next;
    b->prev = &bcache.head;
    b->dev = -1;
    bcache.head.next->prev = b;
  1001d0:	89 42 0c             	mov    %eax,0xc(%edx)
    bcache.head.next = b;
  1001d3:	89 c2                	mov    %eax,%edx
  initlock(&bcache.lock, "bcache");

  // Create linked list of buffers
  bcache.head.prev = &bcache.head;
  bcache.head.next = &bcache.head;
  for(b = bcache.buf; b < bcache.buf+NBUF; b++){
  1001d5:	05 18 02 00 00       	add    $0x218,%eax
  1001da:	3d 84 8d 10 00       	cmp    $0x108d84,%eax
  1001df:	75 d3                	jne    1001b4 <binit+0x34>
    b->prev = &bcache.head;
    b->dev = -1;
    bcache.head.next->prev = b;
    bcache.head.next = b;
  }
}
  1001e1:	c9                   	leave  
  1001e2:	c3                   	ret    
  1001e3:	90                   	nop    
  1001e4:	90                   	nop    
  1001e5:	90                   	nop    
  1001e6:	90                   	nop    
  1001e7:	90                   	nop    
  1001e8:	90                   	nop    
  1001e9:	90                   	nop    
  1001ea:	90                   	nop    
  1001eb:	90                   	nop    
  1001ec:	90                   	nop    
  1001ed:	90                   	nop    
  1001ee:	90                   	nop    
  1001ef:	90                   	nop    

001001f0 <consoleinit>:
  return n;
}

void
consoleinit(void)
{
  1001f0:	55                   	push   %ebp
  1001f1:	89 e5                	mov    %esp,%ebp
  1001f3:	83 ec 08             	sub    $0x8,%esp
  initlock(&cons.lock, "console");
  1001f6:	c7 44 24 04 c6 61 10 	movl   $0x1061c6,0x4(%esp)
  1001fd:	00 
  1001fe:	c7 04 24 c0 77 10 00 	movl   $0x1077c0,(%esp)
  100205:	e8 86 36 00 00       	call   103890 <initlock>
  initlock(&input.lock, "input");
  10020a:	c7 44 24 04 ce 61 10 	movl   $0x1061ce,0x4(%esp)
  100211:	00 
  100212:	c7 04 24 a0 8f 10 00 	movl   $0x108fa0,(%esp)
  100219:	e8 72 36 00 00       	call   103890 <initlock>

  devsw[CONSOLE].write = consolewrite;
  devsw[CONSOLE].read = consoleread;
  cons.locking = 1;

  picenable(IRQ_KBD);
  10021e:	c7 04 24 01 00 00 00 	movl   $0x1,(%esp)
consoleinit(void)
{
  initlock(&cons.lock, "console");
  initlock(&input.lock, "input");

  devsw[CONSOLE].write = consolewrite;
  100225:	c7 05 0c 9a 10 00 d0 	movl   $0x1003d0,0x109a0c
  10022c:	03 10 00 
  devsw[CONSOLE].read = consoleread;
  10022f:	c7 05 08 9a 10 00 10 	movl   $0x100610,0x109a08
  100236:	06 10 00 
  cons.locking = 1;
  100239:	c7 05 f4 77 10 00 01 	movl   $0x1,0x1077f4
  100240:	00 00 00 

  picenable(IRQ_KBD);
  100243:	e8 b8 28 00 00       	call   102b00 <picenable>
  ioapicenable(IRQ_KBD, 0);
  100248:	c7 44 24 04 00 00 00 	movl   $0x0,0x4(%esp)
  10024f:	00 
  100250:	c7 04 24 01 00 00 00 	movl   $0x1,(%esp)
  100257:	e8 34 1e 00 00       	call   102090 <ioapicenable>
}
  10025c:	c9                   	leave  
  10025d:	c3                   	ret    
  10025e:	66 90                	xchg   %ax,%ax

00100260 <consputc>:
  crt[pos] = ' ' | 0x0700;
}

void
consputc(int c)
{
  100260:	55                   	push   %ebp
  100261:	89 e5                	mov    %esp,%ebp
  100263:	57                   	push   %edi
  100264:	56                   	push   %esi
  100265:	89 c6                	mov    %eax,%esi
  100267:	53                   	push   %ebx
  100268:	83 ec 0c             	sub    $0xc,%esp
  if(panicked){
  10026b:	a1 a0 77 10 00       	mov    0x1077a0,%eax
  100270:	85 c0                	test   %eax,%eax
  100272:	74 03                	je     100277 <consputc+0x17>
}

static inline void
cli(void)
{
  asm volatile("cli");
  100274:	fa                   	cli    
  100275:	eb fe                	jmp    100275 <consputc+0x15>
    cli();
    for(;;)
      ;
  }

  if(c == BACKSPACE){
  100277:	81 fe 00 01 00 00    	cmp    $0x100,%esi
  10027d:	0f 84 9f 00 00 00    	je     100322 <consputc+0xc2>
    uartputc('\b'); uartputc(' '); uartputc('\b');
  } else
    uartputc(c);
  100283:	89 34 24             	mov    %esi,(%esp)
  100286:	e8 65 4b 00 00       	call   104df0 <uartputc>
}

static inline void
outb(ushort port, uchar data)
{
  asm volatile("out %0,%1" : : "a" (data), "d" (port));
  10028b:	b9 d4 03 00 00       	mov    $0x3d4,%ecx
  100290:	b8 0e 00 00 00       	mov    $0xe,%eax
  100295:	89 ca                	mov    %ecx,%edx
  100297:	ee                   	out    %al,(%dx)
static inline uchar
inb(ushort port)
{
  uchar data;

  asm volatile("in %1,%0" : "=a" (data) : "d" (port));
  100298:	bf d5 03 00 00       	mov    $0x3d5,%edi
  10029d:	89 fa                	mov    %edi,%edx
  10029f:	ec                   	in     (%dx),%al
{
  int pos;
  
  // Cursor position: col + 80*row.
  outb(CRTPORT, 14);
  pos = inb(CRTPORT+1) << 8;
  1002a0:	0f b6 d8             	movzbl %al,%ebx
}

static inline void
outb(ushort port, uchar data)
{
  asm volatile("out %0,%1" : : "a" (data), "d" (port));
  1002a3:	89 ca                	mov    %ecx,%edx
  1002a5:	c1 e3 08             	shl    $0x8,%ebx
  1002a8:	b8 0f 00 00 00       	mov    $0xf,%eax
  1002ad:	ee                   	out    %al,(%dx)
static inline uchar
inb(ushort port)
{
  uchar data;

  asm volatile("in %1,%0" : "=a" (data) : "d" (port));
  1002ae:	89 fa                	mov    %edi,%edx
  1002b0:	ec                   	in     (%dx),%al
  outb(CRTPORT, 15);
  pos |= inb(CRTPORT+1);
  1002b1:	0f b6 c0             	movzbl %al,%eax
  1002b4:	09 c3                	or     %eax,%ebx

  if(c == '\n')
  1002b6:	83 fe 0a             	cmp    $0xa,%esi
  1002b9:	0f 84 eb 00 00 00    	je     1003aa <consputc+0x14a>
    pos += 80 - pos%80;
  else if(c == BACKSPACE){
  1002bf:	81 fe 00 01 00 00    	cmp    $0x100,%esi
  1002c5:	0f 84 c8 00 00 00    	je     100393 <consputc+0x133>
    if(pos > 0) --pos;
  } else
    crt[pos++] = (c&0xff) | 0x0700;  // black on white
  1002cb:	89 f0                	mov    %esi,%eax
  1002cd:	66 25 ff 00          	and    $0xff,%ax
  1002d1:	80 cc 07             	or     $0x7,%ah
  1002d4:	66 89 84 1b 00 80 0b 	mov    %ax,0xb8000(%ebx,%ebx,1)
  1002db:	00 
  1002dc:	83 c3 01             	add    $0x1,%ebx
  
  if((pos/80) >= 24){  // Scroll up.
  1002df:	81 fb 7f 07 00 00    	cmp    $0x77f,%ebx
  1002e5:	8d b4 1b 00 80 0b 00 	lea    0xb8000(%ebx,%ebx,1),%esi
  1002ec:	7f 5d                	jg     10034b <consputc+0xeb>
}

static inline void
outb(ushort port, uchar data)
{
  asm volatile("out %0,%1" : : "a" (data), "d" (port));
  1002ee:	b9 d4 03 00 00       	mov    $0x3d4,%ecx
  1002f3:	b8 0e 00 00 00       	mov    $0xe,%eax
  1002f8:	89 ca                	mov    %ecx,%edx
  1002fa:	ee                   	out    %al,(%dx)
  
  outb(CRTPORT, 14);
  outb(CRTPORT+1, pos>>8);
  outb(CRTPORT, 15);
  outb(CRTPORT+1, pos);
  crt[pos] = ' ' | 0x0700;
  1002fb:	bf d5 03 00 00       	mov    $0x3d5,%edi
  100300:	89 d8                	mov    %ebx,%eax
  100302:	c1 f8 08             	sar    $0x8,%eax
  100305:	89 fa                	mov    %edi,%edx
  100307:	ee                   	out    %al,(%dx)
  100308:	b8 0f 00 00 00       	mov    $0xf,%eax
  10030d:	89 ca                	mov    %ecx,%edx
  10030f:	ee                   	out    %al,(%dx)
  100310:	89 d8                	mov    %ebx,%eax
  100312:	89 fa                	mov    %edi,%edx
  100314:	ee                   	out    %al,(%dx)
  100315:	66 c7 06 20 07       	movw   $0x720,(%esi)
  if(c == BACKSPACE){
    uartputc('\b'); uartputc(' '); uartputc('\b');
  } else
    uartputc(c);
  cgaputc(c);
}
  10031a:	83 c4 0c             	add    $0xc,%esp
  10031d:	5b                   	pop    %ebx
  10031e:	5e                   	pop    %esi
  10031f:	5f                   	pop    %edi
  100320:	5d                   	pop    %ebp
  100321:	c3                   	ret    
    for(;;)
      ;
  }

  if(c == BACKSPACE){
    uartputc('\b'); uartputc(' '); uartputc('\b');
  100322:	c7 04 24 08 00 00 00 	movl   $0x8,(%esp)
  100329:	e8 c2 4a 00 00       	call   104df0 <uartputc>
  10032e:	c7 04 24 20 00 00 00 	movl   $0x20,(%esp)
  100335:	e8 b6 4a 00 00       	call   104df0 <uartputc>
  10033a:	c7 04 24 08 00 00 00 	movl   $0x8,(%esp)
  100341:	e8 aa 4a 00 00       	call   104df0 <uartputc>
  100346:	e9 40 ff ff ff       	jmp    10028b <consputc+0x2b>
  } else
    crt[pos++] = (c&0xff) | 0x0700;  // black on white
  
  if((pos/80) >= 24){  // Scroll up.
    memmove(crt, crt+80, sizeof(crt[0])*23*80);
    pos -= 80;
  10034b:	83 eb 50             	sub    $0x50,%ebx
    if(pos > 0) --pos;
  } else
    crt[pos++] = (c&0xff) | 0x0700;  // black on white
  
  if((pos/80) >= 24){  // Scroll up.
    memmove(crt, crt+80, sizeof(crt[0])*23*80);
  10034e:	c7 44 24 08 60 0e 00 	movl   $0xe60,0x8(%esp)
  100355:	00 
    pos -= 80;
    memset(crt+pos, 0, sizeof(crt[0])*(24*80 - pos));
  100356:	8d b4 1b 00 80 0b 00 	lea    0xb8000(%ebx,%ebx,1),%esi
    if(pos > 0) --pos;
  } else
    crt[pos++] = (c&0xff) | 0x0700;  // black on white
  
  if((pos/80) >= 24){  // Scroll up.
    memmove(crt, crt+80, sizeof(crt[0])*23*80);
  10035d:	c7 44 24 04 a0 80 0b 	movl   $0xb80a0,0x4(%esp)
  100364:	00 
  100365:	c7 04 24 00 80 0b 00 	movl   $0xb8000,(%esp)
  10036c:	e8 af 37 00 00       	call   103b20 <memmove>
    pos -= 80;
    memset(crt+pos, 0, sizeof(crt[0])*(24*80 - pos));
  100371:	b8 80 07 00 00       	mov    $0x780,%eax
  100376:	29 d8                	sub    %ebx,%eax
  100378:	01 c0                	add    %eax,%eax
  10037a:	89 44 24 08          	mov    %eax,0x8(%esp)
  10037e:	c7 44 24 04 00 00 00 	movl   $0x0,0x4(%esp)
  100385:	00 
  100386:	89 34 24             	mov    %esi,(%esp)
  100389:	e8 f2 36 00 00       	call   103a80 <memset>
  10038e:	e9 5b ff ff ff       	jmp    1002ee <consputc+0x8e>
  pos |= inb(CRTPORT+1);

  if(c == '\n')
    pos += 80 - pos%80;
  else if(c == BACKSPACE){
    if(pos > 0) --pos;
  100393:	85 db                	test   %ebx,%ebx
  100395:	8d b4 1b 00 80 0b 00 	lea    0xb8000(%ebx,%ebx,1),%esi
  10039c:	0f 8e 4c ff ff ff    	jle    1002ee <consputc+0x8e>
  1003a2:	83 eb 01             	sub    $0x1,%ebx
  1003a5:	e9 35 ff ff ff       	jmp    1002df <consputc+0x7f>
  pos = inb(CRTPORT+1) << 8;
  outb(CRTPORT, 15);
  pos |= inb(CRTPORT+1);

  if(c == '\n')
    pos += 80 - pos%80;
  1003aa:	89 d8                	mov    %ebx,%eax
  1003ac:	ba 67 66 66 66       	mov    $0x66666667,%edx
  1003b1:	f7 ea                	imul   %edx
  1003b3:	c1 ea 05             	shr    $0x5,%edx
  1003b6:	8d 14 92             	lea    (%edx,%edx,4),%edx
  1003b9:	c1 e2 04             	shl    $0x4,%edx
  1003bc:	8d 5a 50             	lea    0x50(%edx),%ebx
  1003bf:	e9 1b ff ff ff       	jmp    1002df <consputc+0x7f>
  1003c4:	8d b6 00 00 00 00    	lea    0x0(%esi),%esi
  1003ca:	8d bf 00 00 00 00    	lea    0x0(%edi),%edi

001003d0 <consolewrite>:
  return target - n;
}

int
consolewrite(struct inode *ip, char *buf, int n)
{
  1003d0:	55                   	push   %ebp
  1003d1:	89 e5                	mov    %esp,%ebp
  1003d3:	57                   	push   %edi
  1003d4:	56                   	push   %esi
  1003d5:	53                   	push   %ebx
  1003d6:	83 ec 0c             	sub    $0xc,%esp
  int i;

  iunlock(ip);
  1003d9:	8b 45 08             	mov    0x8(%ebp),%eax
  return target - n;
}

int
consolewrite(struct inode *ip, char *buf, int n)
{
  1003dc:	8b 75 10             	mov    0x10(%ebp),%esi
  1003df:	8b 7d 0c             	mov    0xc(%ebp),%edi
  int i;

  iunlock(ip);
  1003e2:	89 04 24             	mov    %eax,(%esp)
  1003e5:	e8 b6 12 00 00       	call   1016a0 <iunlock>
  acquire(&cons.lock);
  1003ea:	c7 04 24 c0 77 10 00 	movl   $0x1077c0,(%esp)
  1003f1:	e8 1a 36 00 00       	call   103a10 <acquire>
  for(i = 0; i < n; i++)
  1003f6:	85 f6                	test   %esi,%esi
  1003f8:	7e 16                	jle    100410 <consolewrite+0x40>
  1003fa:	31 db                	xor    %ebx,%ebx
  1003fc:	8d 74 26 00          	lea    0x0(%esi),%esi
    consputc(buf[i] & 0xff);
  100400:	0f b6 04 3b          	movzbl (%ebx,%edi,1),%eax
{
  int i;

  iunlock(ip);
  acquire(&cons.lock);
  for(i = 0; i < n; i++)
  100404:	83 c3 01             	add    $0x1,%ebx
    consputc(buf[i] & 0xff);
  100407:	e8 54 fe ff ff       	call   100260 <consputc>
{
  int i;

  iunlock(ip);
  acquire(&cons.lock);
  for(i = 0; i < n; i++)
  10040c:	39 f3                	cmp    %esi,%ebx
  10040e:	75 f0                	jne    100400 <consolewrite+0x30>
    consputc(buf[i] & 0xff);
  release(&cons.lock);
  100410:	c7 04 24 c0 77 10 00 	movl   $0x1077c0,(%esp)
  100417:	e8 b4 35 00 00       	call   1039d0 <release>
  ilock(ip);
  10041c:	8b 45 08             	mov    0x8(%ebp),%eax
  10041f:	89 04 24             	mov    %eax,(%esp)
  100422:	e8 99 16 00 00       	call   101ac0 <ilock>

  return n;
}
  100427:	83 c4 0c             	add    $0xc,%esp
  10042a:	89 f0                	mov    %esi,%eax
  10042c:	5b                   	pop    %ebx
  10042d:	5e                   	pop    %esi
  10042e:	5f                   	pop    %edi
  10042f:	5d                   	pop    %ebp
  100430:	c3                   	ret    
  100431:	eb 0d                	jmp    100440 <printint>
  100433:	90                   	nop    
  100434:	90                   	nop    
  100435:	90                   	nop    
  100436:	90                   	nop    
  100437:	90                   	nop    
  100438:	90                   	nop    
  100439:	90                   	nop    
  10043a:	90                   	nop    
  10043b:	90                   	nop    
  10043c:	90                   	nop    
  10043d:	90                   	nop    
  10043e:	90                   	nop    
  10043f:	90                   	nop    

00100440 <printint>:
  int locking;
} cons;

static void
printint(int xx, int base, int sgn)
{
  100440:	55                   	push   %ebp
  100441:	89 e5                	mov    %esp,%ebp
  100443:	57                   	push   %edi
  100444:	89 d7                	mov    %edx,%edi
  100446:	56                   	push   %esi
  100447:	53                   	push   %ebx
  100448:	83 ec 1c             	sub    $0x1c,%esp
  static char digits[] = "0123456789abcdef";
  char buf[16];
  int i = 0, neg = 0;
  uint x;

  if(sgn && xx < 0){
  10044b:	85 c9                	test   %ecx,%ecx
  10044d:	74 04                	je     100453 <printint+0x13>
  10044f:	85 c0                	test   %eax,%eax
  100451:	78 55                	js     1004a8 <printint+0x68>
    neg = 1;
    x = -xx;
  } else
    x = xx;
  100453:	c7 45 e0 00 00 00 00 	movl   $0x0,-0x20(%ebp)
  10045a:	31 db                	xor    %ebx,%ebx
  10045c:	8d 75 e4             	lea    -0x1c(%ebp),%esi
  10045f:	90                   	nop    

  do{
    buf[i++] = digits[x % base];
  100460:	31 d2                	xor    %edx,%edx
  100462:	f7 f7                	div    %edi
  100464:	89 c1                	mov    %eax,%ecx
  100466:	0f b6 82 ee 61 10 00 	movzbl 0x1061ee(%edx),%eax
  10046d:	88 04 33             	mov    %al,(%ebx,%esi,1)
  100470:	83 c3 01             	add    $0x1,%ebx
  }while((x /= base) != 0);
  100473:	85 c9                	test   %ecx,%ecx
  100475:	89 c8                	mov    %ecx,%eax
  100477:	75 e7                	jne    100460 <printint+0x20>
  if(neg)
  100479:	8b 55 e0             	mov    -0x20(%ebp),%edx
  10047c:	85 d2                	test   %edx,%edx
  10047e:	74 08                	je     100488 <printint+0x48>
    buf[i++] = '-';
  100480:	c6 44 1d e4 2d       	movb   $0x2d,-0x1c(%ebp,%ebx,1)
  100485:	83 c3 01             	add    $0x1,%ebx
  100488:	8d 1c 1e             	lea    (%esi,%ebx,1),%ebx
  10048b:	90                   	nop    
  10048c:	8d 74 26 00          	lea    0x0(%esi),%esi

  while(--i >= 0)
    consputc(buf[i]);
  100490:	0f be 43 ff          	movsbl -0x1(%ebx),%eax
  100494:	83 eb 01             	sub    $0x1,%ebx
  100497:	e8 c4 fd ff ff       	call   100260 <consputc>
    buf[i++] = digits[x % base];
  }while((x /= base) != 0);
  if(neg)
    buf[i++] = '-';

  while(--i >= 0)
  10049c:	39 f3                	cmp    %esi,%ebx
  10049e:	75 f0                	jne    100490 <printint+0x50>
    consputc(buf[i]);
}
  1004a0:	83 c4 1c             	add    $0x1c,%esp
  1004a3:	5b                   	pop    %ebx
  1004a4:	5e                   	pop    %esi
  1004a5:	5f                   	pop    %edi
  1004a6:	5d                   	pop    %ebp
  1004a7:	c3                   	ret    
  int i = 0, neg = 0;
  uint x;

  if(sgn && xx < 0){
    neg = 1;
    x = -xx;
  1004a8:	f7 d8                	neg    %eax
  1004aa:	c7 45 e0 01 00 00 00 	movl   $0x1,-0x20(%ebp)
  1004b1:	eb a7                	jmp    10045a <printint+0x1a>
  1004b3:	8d b6 00 00 00 00    	lea    0x0(%esi),%esi
  1004b9:	8d bc 27 00 00 00 00 	lea    0x0(%edi),%edi

001004c0 <cprintf>:
}

// Print to the console. only understands %d, %x, %p, %s.
void
cprintf(char *fmt, ...)
{
  1004c0:	55                   	push   %ebp
  1004c1:	89 e5                	mov    %esp,%ebp
  1004c3:	57                   	push   %edi
  1004c4:	56                   	push   %esi
  1004c5:	53                   	push   %ebx
  1004c6:	83 ec 0c             	sub    $0xc,%esp
  int i, c, state, locking;
  uint *argp;
  char *s;

  locking = cons.locking;
  1004c9:	a1 f4 77 10 00       	mov    0x1077f4,%eax
  if(locking)
  1004ce:	85 c0                	test   %eax,%eax
{
  int i, c, state, locking;
  uint *argp;
  char *s;

  locking = cons.locking;
  1004d0:	89 45 ec             	mov    %eax,-0x14(%ebp)
  if(locking)
  1004d3:	0f 85 17 01 00 00    	jne    1005f0 <cprintf+0x130>
    acquire(&cons.lock);

  argp = (uint*)(void*)(&fmt + 1);
  state = 0;
  for(i = 0; (c = fmt[i] & 0xff) != 0; i++){
  1004d9:	8b 7d 08             	mov    0x8(%ebp),%edi
  1004dc:	0f b6 07             	movzbl (%edi),%eax
  1004df:	85 c0                	test   %eax,%eax
  1004e1:	0f 84 82 00 00 00    	je     100569 <cprintf+0xa9>

  locking = cons.locking;
  if(locking)
    acquire(&cons.lock);

  argp = (uint*)(void*)(&fmt + 1);
  1004e7:	8d 55 0c             	lea    0xc(%ebp),%edx
  1004ea:	31 f6                	xor    %esi,%esi
  1004ec:	89 55 f0             	mov    %edx,-0x10(%ebp)
  1004ef:	eb 2f                	jmp    100520 <cprintf+0x60>
      continue;
    }
    c = fmt[++i] & 0xff;
    if(c == 0)
      break;
    switch(c){
  1004f1:	83 fb 25             	cmp    $0x25,%ebx
  1004f4:	0f 84 a9 00 00 00    	je     1005a3 <cprintf+0xe3>
  1004fa:	83 fb 64             	cmp    $0x64,%ebx
  1004fd:	0f 84 81 00 00 00    	je     100584 <cprintf+0xc4>
    case '%':
      consputc('%');
      break;
    default:
      // Print unknown % sequence to draw attention.
      consputc('%');
  100503:	b8 25 00 00 00       	mov    $0x25,%eax
  100508:	e8 53 fd ff ff       	call   100260 <consputc>
      consputc(c);
  10050d:	89 d8                	mov    %ebx,%eax
  10050f:	90                   	nop    
  100510:	e8 4b fd ff ff       	call   100260 <consputc>
  if(locking)
    acquire(&cons.lock);

  argp = (uint*)(void*)(&fmt + 1);
  state = 0;
  for(i = 0; (c = fmt[i] & 0xff) != 0; i++){
  100515:	83 c6 01             	add    $0x1,%esi
  100518:	0f b6 04 3e          	movzbl (%esi,%edi,1),%eax
  10051c:	85 c0                	test   %eax,%eax
  10051e:	74 49                	je     100569 <cprintf+0xa9>
    if(c != '%'){
  100520:	83 f8 25             	cmp    $0x25,%eax
  100523:	75 eb                	jne    100510 <cprintf+0x50>
      consputc(c);
      continue;
    }
    c = fmt[++i] & 0xff;
  100525:	83 c6 01             	add    $0x1,%esi
  100528:	0f b6 1c 3e          	movzbl (%esi,%edi,1),%ebx
    if(c == 0)
  10052c:	85 db                	test   %ebx,%ebx
  10052e:	74 39                	je     100569 <cprintf+0xa9>
      break;
    switch(c){
  100530:	83 fb 70             	cmp    $0x70,%ebx
  100533:	74 12                	je     100547 <cprintf+0x87>
  100535:	7e ba                	jle    1004f1 <cprintf+0x31>
  100537:	83 fb 73             	cmp    $0x73,%ebx
  10053a:	8d b6 00 00 00 00    	lea    0x0(%esi),%esi
  100540:	74 73                	je     1005b5 <cprintf+0xf5>
  100542:	83 fb 78             	cmp    $0x78,%ebx
  100545:	75 bc                	jne    100503 <cprintf+0x43>
    case 'd':
      printint(*argp++, 10, 1);
      break;
    case 'x':
    case 'p':
      printint(*argp++, 16, 0);
  100547:	8b 55 f0             	mov    -0x10(%ebp),%edx
  10054a:	31 c9                	xor    %ecx,%ecx
  if(locking)
    acquire(&cons.lock);

  argp = (uint*)(void*)(&fmt + 1);
  state = 0;
  for(i = 0; (c = fmt[i] & 0xff) != 0; i++){
  10054c:	83 c6 01             	add    $0x1,%esi
    case 'd':
      printint(*argp++, 10, 1);
      break;
    case 'x':
    case 'p':
      printint(*argp++, 16, 0);
  10054f:	8b 02                	mov    (%edx),%eax
  100551:	83 c2 04             	add    $0x4,%edx
  100554:	89 55 f0             	mov    %edx,-0x10(%ebp)
  100557:	ba 10 00 00 00       	mov    $0x10,%edx
  10055c:	e8 df fe ff ff       	call   100440 <printint>
  if(locking)
    acquire(&cons.lock);

  argp = (uint*)(void*)(&fmt + 1);
  state = 0;
  for(i = 0; (c = fmt[i] & 0xff) != 0; i++){
  100561:	0f b6 04 3e          	movzbl (%esi,%edi,1),%eax
  100565:	85 c0                	test   %eax,%eax
  100567:	75 b7                	jne    100520 <cprintf+0x60>
      consputc(c);
      break;
    }
  }

  if(locking)
  100569:	8b 4d ec             	mov    -0x14(%ebp),%ecx
  10056c:	85 c9                	test   %ecx,%ecx
  10056e:	74 0c                	je     10057c <cprintf+0xbc>
    release(&cons.lock);
  100570:	c7 04 24 c0 77 10 00 	movl   $0x1077c0,(%esp)
  100577:	e8 54 34 00 00       	call   1039d0 <release>
}
  10057c:	83 c4 0c             	add    $0xc,%esp
  10057f:	5b                   	pop    %ebx
  100580:	5e                   	pop    %esi
  100581:	5f                   	pop    %edi
  100582:	5d                   	pop    %ebp
  100583:	c3                   	ret    
    c = fmt[++i] & 0xff;
    if(c == 0)
      break;
    switch(c){
    case 'd':
      printint(*argp++, 10, 1);
  100584:	8b 55 f0             	mov    -0x10(%ebp),%edx
  100587:	b9 01 00 00 00       	mov    $0x1,%ecx
  10058c:	8b 02                	mov    (%edx),%eax
  10058e:	83 c2 04             	add    $0x4,%edx
  100591:	89 55 f0             	mov    %edx,-0x10(%ebp)
  100594:	ba 0a 00 00 00       	mov    $0xa,%edx
  100599:	e8 a2 fe ff ff       	call   100440 <printint>
  10059e:	e9 72 ff ff ff       	jmp    100515 <cprintf+0x55>
        s = "(null)";
      for(; *s; s++)
        consputc(*s);
      break;
    case '%':
      consputc('%');
  1005a3:	b8 25 00 00 00       	mov    $0x25,%eax
  1005a8:	e8 b3 fc ff ff       	call   100260 <consputc>
  1005ad:	8d 76 00             	lea    0x0(%esi),%esi
  1005b0:	e9 60 ff ff ff       	jmp    100515 <cprintf+0x55>
    case 'x':
    case 'p':
      printint(*argp++, 16, 0);
      break;
    case 's':
      if((s = (char*)*argp++) == 0)
  1005b5:	8b 55 f0             	mov    -0x10(%ebp),%edx
  1005b8:	8b 02                	mov    (%edx),%eax
  1005ba:	83 c2 04             	add    $0x4,%edx
  1005bd:	89 55 f0             	mov    %edx,-0x10(%ebp)
  1005c0:	ba d4 61 10 00       	mov    $0x1061d4,%edx
  1005c5:	85 c0                	test   %eax,%eax
  1005c7:	74 02                	je     1005cb <cprintf+0x10b>
  1005c9:	89 c2                	mov    %eax,%edx
        s = "(null)";
      for(; *s; s++)
  1005cb:	0f b6 02             	movzbl (%edx),%eax
  1005ce:	84 c0                	test   %al,%al
  1005d0:	0f 84 3f ff ff ff    	je     100515 <cprintf+0x55>
  1005d6:	89 d3                	mov    %edx,%ebx
        consputc(*s);
  1005d8:	0f be c0             	movsbl %al,%eax
  1005db:	e8 80 fc ff ff       	call   100260 <consputc>
      printint(*argp++, 16, 0);
      break;
    case 's':
      if((s = (char*)*argp++) == 0)
        s = "(null)";
      for(; *s; s++)
  1005e0:	0f b6 43 01          	movzbl 0x1(%ebx),%eax
  1005e4:	83 c3 01             	add    $0x1,%ebx
  1005e7:	84 c0                	test   %al,%al
  1005e9:	75 ed                	jne    1005d8 <cprintf+0x118>
  1005eb:	e9 25 ff ff ff       	jmp    100515 <cprintf+0x55>
  uint *argp;
  char *s;

  locking = cons.locking;
  if(locking)
    acquire(&cons.lock);
  1005f0:	c7 04 24 c0 77 10 00 	movl   $0x1077c0,(%esp)
  1005f7:	e8 14 34 00 00       	call   103a10 <acquire>
  1005fc:	e9 d8 fe ff ff       	jmp    1004d9 <cprintf+0x19>
  100601:	eb 0d                	jmp    100610 <consoleread>
  100603:	90                   	nop    
  100604:	90                   	nop    
  100605:	90                   	nop    
  100606:	90                   	nop    
  100607:	90                   	nop    
  100608:	90                   	nop    
  100609:	90                   	nop    
  10060a:	90                   	nop    
  10060b:	90                   	nop    
  10060c:	90                   	nop    
  10060d:	90                   	nop    
  10060e:	90                   	nop    
  10060f:	90                   	nop    

00100610 <consoleread>:
  release(&input.lock);
}

int
consoleread(struct inode *ip, char *dst, int n)
{
  100610:	55                   	push   %ebp
  100611:	89 e5                	mov    %esp,%ebp
  100613:	57                   	push   %edi
  100614:	56                   	push   %esi
  100615:	53                   	push   %ebx
  100616:	83 ec 0c             	sub    $0xc,%esp
  100619:	8b 5d 10             	mov    0x10(%ebp),%ebx
  uint target;
  int c;

  iunlock(ip);
  10061c:	8b 45 08             	mov    0x8(%ebp),%eax
  release(&input.lock);
}

int
consoleread(struct inode *ip, char *dst, int n)
{
  10061f:	8b 75 0c             	mov    0xc(%ebp),%esi
  uint target;
  int c;

  iunlock(ip);
  target = n;
  100622:	89 df                	mov    %ebx,%edi
consoleread(struct inode *ip, char *dst, int n)
{
  uint target;
  int c;

  iunlock(ip);
  100624:	89 04 24             	mov    %eax,(%esp)
  100627:	e8 74 10 00 00       	call   1016a0 <iunlock>
  target = n;
  acquire(&input.lock);
  10062c:	c7 04 24 a0 8f 10 00 	movl   $0x108fa0,(%esp)
  100633:	e8 d8 33 00 00       	call   103a10 <acquire>
  while(n > 0){
  100638:	85 db                	test   %ebx,%ebx
  10063a:	7f 26                	jg     100662 <consoleread+0x52>
  10063c:	e9 b0 00 00 00       	jmp    1006f1 <consoleread+0xe1>
    while(input.r == input.w){
      if(proc->killed){
  100641:	65 a1 04 00 00 00    	mov    %gs:0x4,%eax
  100647:	8b 40 24             	mov    0x24(%eax),%eax
  10064a:	85 c0                	test   %eax,%eax
  10064c:	75 4e                	jne    10069c <consoleread+0x8c>
        release(&input.lock);
        ilock(ip);
        return -1;
      }
      sleep(&input.r, &input.lock);
  10064e:	c7 44 24 04 a0 8f 10 	movl   $0x108fa0,0x4(%esp)
  100655:	00 
  100656:	c7 04 24 54 90 10 00 	movl   $0x109054,(%esp)
  10065d:	e8 8e 2a 00 00       	call   1030f0 <sleep>

  iunlock(ip);
  target = n;
  acquire(&input.lock);
  while(n > 0){
    while(input.r == input.w){
  100662:	8b 15 54 90 10 00    	mov    0x109054,%edx
  100668:	3b 15 58 90 10 00    	cmp    0x109058,%edx
  10066e:	74 d1                	je     100641 <consoleread+0x31>
        ilock(ip);
        return -1;
      }
      sleep(&input.r, &input.lock);
    }
    c = input.buf[input.r++ % INPUT_BUF];
  100670:	89 d0                	mov    %edx,%eax
  100672:	83 e0 7f             	and    $0x7f,%eax
  100675:	0f b6 88 d4 8f 10 00 	movzbl 0x108fd4(%eax),%ecx
  10067c:	8d 42 01             	lea    0x1(%edx),%eax
  10067f:	a3 54 90 10 00       	mov    %eax,0x109054
    if(c == C('D')){  // EOF
  100684:	80 f9 04             	cmp    $0x4,%cl
  100687:	74 39                	je     1006c2 <consoleread+0xb2>
        input.r--;
      }
      break;
    }
    *dst++ = c;
    --n;
  100689:	83 eb 01             	sub    $0x1,%ebx
    if(c == '\n')
  10068c:	80 f9 0a             	cmp    $0xa,%cl
        // caller gets a 0-byte result.
        input.r--;
      }
      break;
    }
    *dst++ = c;
  10068f:	88 0e                	mov    %cl,(%esi)
    --n;
    if(c == '\n')
  100691:	74 39                	je     1006cc <consoleread+0xbc>
  int c;

  iunlock(ip);
  target = n;
  acquire(&input.lock);
  while(n > 0){
  100693:	85 db                	test   %ebx,%ebx
  100695:	74 37                	je     1006ce <consoleread+0xbe>
        // caller gets a 0-byte result.
        input.r--;
      }
      break;
    }
    *dst++ = c;
  100697:	83 c6 01             	add    $0x1,%esi
  10069a:	eb c6                	jmp    100662 <consoleread+0x52>
  target = n;
  acquire(&input.lock);
  while(n > 0){
    while(input.r == input.w){
      if(proc->killed){
        release(&input.lock);
  10069c:	c7 04 24 a0 8f 10 00 	movl   $0x108fa0,(%esp)
        ilock(ip);
  1006a3:	bb ff ff ff ff       	mov    $0xffffffff,%ebx
  target = n;
  acquire(&input.lock);
  while(n > 0){
    while(input.r == input.w){
      if(proc->killed){
        release(&input.lock);
  1006a8:	e8 23 33 00 00       	call   1039d0 <release>
        ilock(ip);
  1006ad:	8b 45 08             	mov    0x8(%ebp),%eax
  1006b0:	89 04 24             	mov    %eax,(%esp)
  1006b3:	e8 08 14 00 00       	call   101ac0 <ilock>
  }
  release(&input.lock);
  ilock(ip);

  return target - n;
}
  1006b8:	83 c4 0c             	add    $0xc,%esp
  1006bb:	89 d8                	mov    %ebx,%eax
  1006bd:	5b                   	pop    %ebx
  1006be:	5e                   	pop    %esi
  1006bf:	5f                   	pop    %edi
  1006c0:	5d                   	pop    %ebp
  1006c1:	c3                   	ret    
      }
      sleep(&input.r, &input.lock);
    }
    c = input.buf[input.r++ % INPUT_BUF];
    if(c == C('D')){  // EOF
      if(n < target){
  1006c2:	39 df                	cmp    %ebx,%edi
  1006c4:	76 06                	jbe    1006cc <consoleread+0xbc>
        // Save ^D for next time, to make sure
        // caller gets a 0-byte result.
        input.r--;
  1006c6:	89 15 54 90 10 00    	mov    %edx,0x109054
      }
      break;
    }
    *dst++ = c;
    --n;
    if(c == '\n')
  1006cc:	29 df                	sub    %ebx,%edi
  1006ce:	89 fb                	mov    %edi,%ebx
      break;
  }
  release(&input.lock);
  1006d0:	c7 04 24 a0 8f 10 00 	movl   $0x108fa0,(%esp)
  1006d7:	e8 f4 32 00 00       	call   1039d0 <release>
  ilock(ip);
  1006dc:	8b 45 08             	mov    0x8(%ebp),%eax
  1006df:	89 04 24             	mov    %eax,(%esp)
  1006e2:	e8 d9 13 00 00       	call   101ac0 <ilock>

  return target - n;
}
  1006e7:	83 c4 0c             	add    $0xc,%esp
  1006ea:	89 d8                	mov    %ebx,%eax
  1006ec:	5b                   	pop    %ebx
  1006ed:	5e                   	pop    %esi
  1006ee:	5f                   	pop    %edi
  1006ef:	5d                   	pop    %ebp
  1006f0:	c3                   	ret    
  iunlock(ip);
  target = n;
  acquire(&input.lock);
  while(n > 0){
    while(input.r == input.w){
      if(proc->killed){
  1006f1:	31 db                	xor    %ebx,%ebx
  1006f3:	eb db                	jmp    1006d0 <consoleread+0xc0>
  1006f5:	8d 74 26 00          	lea    0x0(%esi),%esi
  1006f9:	8d bc 27 00 00 00 00 	lea    0x0(%edi),%edi

00100700 <consoleintr>:

#define C(x)  ((x)-'@')  // Control-x

void
consoleintr(int (*getc)(void))
{
  100700:	55                   	push   %ebp
  100701:	89 e5                	mov    %esp,%ebp
  100703:	56                   	push   %esi
  100704:	53                   	push   %ebx
  100705:	83 ec 10             	sub    $0x10,%esp
  100708:	8b 75 08             	mov    0x8(%ebp),%esi
  int c;

  acquire(&input.lock);
  10070b:	c7 04 24 a0 8f 10 00 	movl   $0x108fa0,(%esp)
  100712:	e8 f9 32 00 00       	call   103a10 <acquire>
  while((c = getc()) >= 0){
  100717:	ff d6                	call   *%esi
  100719:	85 c0                	test   %eax,%eax
  10071b:	89 c3                	mov    %eax,%ebx
  10071d:	0f 88 a3 00 00 00    	js     1007c6 <consoleintr+0xc6>
    switch(c){
  100723:	83 fb 10             	cmp    $0x10,%ebx
  100726:	0f 84 1b 01 00 00    	je     100847 <consoleintr+0x147>
  10072c:	8d 74 26 00          	lea    0x0(%esi),%esi
  100730:	0f 8f a2 00 00 00    	jg     1007d8 <consoleintr+0xd8>
  100736:	83 fb 08             	cmp    $0x8,%ebx
  100739:	8d b4 26 00 00 00 00 	lea    0x0(%esi),%esi
  100740:	0f 84 a0 00 00 00    	je     1007e6 <consoleintr+0xe6>
        input.e--;
        consputc(BACKSPACE);
      }
      break;
    default:
      if(c != 0 && input.e-input.r < INPUT_BUF){
  100746:	85 db                	test   %ebx,%ebx
  100748:	74 cd                	je     100717 <consoleintr+0x17>
  10074a:	8b 15 5c 90 10 00    	mov    0x10905c,%edx
  100750:	89 d0                	mov    %edx,%eax
  100752:	2b 05 54 90 10 00    	sub    0x109054,%eax
  100758:	83 f8 7f             	cmp    $0x7f,%eax
  10075b:	77 ba                	ja     100717 <consoleintr+0x17>
        c = (c == '\r') ? '\n' : c;
  10075d:	83 fb 0d             	cmp    $0xd,%ebx
  100760:	0f 84 ef 00 00 00    	je     100855 <consoleintr+0x155>
        input.buf[input.e++ % INPUT_BUF] = c;
  100766:	89 d0                	mov    %edx,%eax
  100768:	83 e0 7f             	and    $0x7f,%eax
  10076b:	88 98 d4 8f 10 00    	mov    %bl,0x108fd4(%eax)
  100771:	8d 42 01             	lea    0x1(%edx),%eax
  100774:	a3 5c 90 10 00       	mov    %eax,0x10905c
        consputc(c);
  100779:	89 d8                	mov    %ebx,%eax
  10077b:	e8 e0 fa ff ff       	call   100260 <consputc>
        if(c == '\n' || c == C('D') || input.e == input.r+INPUT_BUF){
  100780:	83 fb 0a             	cmp    $0xa,%ebx
  100783:	0f 84 ea 00 00 00    	je     100873 <consoleintr+0x173>
  100789:	83 fb 04             	cmp    $0x4,%ebx
  10078c:	0f 84 e1 00 00 00    	je     100873 <consoleintr+0x173>
  100792:	a1 54 90 10 00       	mov    0x109054,%eax
  100797:	8b 15 5c 90 10 00    	mov    0x10905c,%edx
  10079d:	83 e8 80             	sub    $0xffffff80,%eax
  1007a0:	39 c2                	cmp    %eax,%edx
  1007a2:	0f 85 6f ff ff ff    	jne    100717 <consoleintr+0x17>
          input.w = input.e;
  1007a8:	89 15 58 90 10 00    	mov    %edx,0x109058
          wakeup(&input.r);
  1007ae:	c7 04 24 54 90 10 00 	movl   $0x109054,(%esp)
  1007b5:	e8 46 28 00 00       	call   103000 <wakeup>
consoleintr(int (*getc)(void))
{
  int c;

  acquire(&input.lock);
  while((c = getc()) >= 0){
  1007ba:	ff d6                	call   *%esi
  1007bc:	85 c0                	test   %eax,%eax
  1007be:	89 c3                	mov    %eax,%ebx
  1007c0:	0f 89 5d ff ff ff    	jns    100723 <consoleintr+0x23>
        }
      }
      break;
    }
  }
  release(&input.lock);
  1007c6:	c7 45 08 a0 8f 10 00 	movl   $0x108fa0,0x8(%ebp)
}
  1007cd:	83 c4 10             	add    $0x10,%esp
  1007d0:	5b                   	pop    %ebx
  1007d1:	5e                   	pop    %esi
  1007d2:	5d                   	pop    %ebp
        }
      }
      break;
    }
  }
  release(&input.lock);
  1007d3:	e9 f8 31 00 00       	jmp    1039d0 <release>
{
  int c;

  acquire(&input.lock);
  while((c = getc()) >= 0){
    switch(c){
  1007d8:	83 fb 15             	cmp    $0x15,%ebx
  1007db:	74 58                	je     100835 <consoleintr+0x135>
  1007dd:	83 fb 7f             	cmp    $0x7f,%ebx
  1007e0:	0f 85 60 ff ff ff    	jne    100746 <consoleintr+0x46>
        input.e--;
        consputc(BACKSPACE);
      }
      break;
    case C('H'): case '\x7f':  // Backspace
      if(input.e != input.w){
  1007e6:	a1 5c 90 10 00       	mov    0x10905c,%eax
  1007eb:	3b 05 58 90 10 00    	cmp    0x109058,%eax
  1007f1:	0f 84 20 ff ff ff    	je     100717 <consoleintr+0x17>
        input.e--;
  1007f7:	83 e8 01             	sub    $0x1,%eax
  1007fa:	a3 5c 90 10 00       	mov    %eax,0x10905c
        consputc(BACKSPACE);
  1007ff:	b8 00 01 00 00       	mov    $0x100,%eax
  100804:	e8 57 fa ff ff       	call   100260 <consputc>
  100809:	e9 09 ff ff ff       	jmp    100717 <consoleintr+0x17>
  10080e:	66 90                	xchg   %ax,%ax
    switch(c){
    case C('P'):  // Process listing.
      procdump();
      break;
    case C('U'):  // Kill line.
      while(input.e != input.w &&
  100810:	8d 50 ff             	lea    -0x1(%eax),%edx
  100813:	89 d0                	mov    %edx,%eax
  100815:	83 e0 7f             	and    $0x7f,%eax
  100818:	80 b8 d4 8f 10 00 0a 	cmpb   $0xa,0x108fd4(%eax)
  10081f:	0f 84 f2 fe ff ff    	je     100717 <consoleintr+0x17>
            input.buf[(input.e-1) % INPUT_BUF] != '\n'){
        input.e--;
        consputc(BACKSPACE);
  100825:	b8 00 01 00 00       	mov    $0x100,%eax
      procdump();
      break;
    case C('U'):  // Kill line.
      while(input.e != input.w &&
            input.buf[(input.e-1) % INPUT_BUF] != '\n'){
        input.e--;
  10082a:	89 15 5c 90 10 00    	mov    %edx,0x10905c
        consputc(BACKSPACE);
  100830:	e8 2b fa ff ff       	call   100260 <consputc>
    switch(c){
    case C('P'):  // Process listing.
      procdump();
      break;
    case C('U'):  // Kill line.
      while(input.e != input.w &&
  100835:	a1 5c 90 10 00       	mov    0x10905c,%eax
  10083a:	3b 05 58 90 10 00    	cmp    0x109058,%eax
  100840:	75 ce                	jne    100810 <consoleintr+0x110>
  100842:	e9 d0 fe ff ff       	jmp    100717 <consoleintr+0x17>

  acquire(&input.lock);
  while((c = getc()) >= 0){
    switch(c){
    case C('P'):  // Process listing.
      procdump();
  100847:	e8 64 2f 00 00       	call   1037b0 <procdump>
  10084c:	8d 74 26 00          	lea    0x0(%esi),%esi
  100850:	e9 c2 fe ff ff       	jmp    100717 <consoleintr+0x17>
      }
      break;
    default:
      if(c != 0 && input.e-input.r < INPUT_BUF){
        c = (c == '\r') ? '\n' : c;
        input.buf[input.e++ % INPUT_BUF] = c;
  100855:	89 d0                	mov    %edx,%eax
  100857:	83 e0 7f             	and    $0x7f,%eax
  10085a:	c6 80 d4 8f 10 00 0a 	movb   $0xa,0x108fd4(%eax)
  100861:	8d 42 01             	lea    0x1(%edx),%eax
  100864:	a3 5c 90 10 00       	mov    %eax,0x10905c
        consputc(c);
  100869:	b8 0a 00 00 00       	mov    $0xa,%eax
  10086e:	e8 ed f9 ff ff       	call   100260 <consputc>
  100873:	8b 15 5c 90 10 00    	mov    0x10905c,%edx
  100879:	e9 2a ff ff ff       	jmp    1007a8 <consoleintr+0xa8>
  10087e:	66 90                	xchg   %ax,%ax

00100880 <panic>:
    release(&cons.lock);
}

void
panic(char *s)
{
  100880:	55                   	push   %ebp
  100881:	89 e5                	mov    %esp,%ebp
  100883:	56                   	push   %esi
  100884:	53                   	push   %ebx
  100885:	83 ec 40             	sub    $0x40,%esp
}

static inline void
cli(void)
{
  asm volatile("cli");
  100888:	fa                   	cli    
  int i;
  uint pcs[10];
  
  cli();
  cons.locking = 0;
  cprintf("cpu%d: panic: ", cpu->id);
  100889:	65 a1 00 00 00 00    	mov    %gs:0x0,%eax
  cprintf(s);
  cprintf("\n");
  getcallerpcs(&s, pcs);
  10088f:	8d 75 d0             	lea    -0x30(%ebp),%esi
  for(i=0; i<10; i++)
    cprintf(" %p", pcs[i]);
  100892:	bb 02 00 00 00       	mov    $0x2,%ebx
{
  int i;
  uint pcs[10];
  
  cli();
  cons.locking = 0;
  100897:	c7 05 f4 77 10 00 00 	movl   $0x0,0x1077f4
  10089e:	00 00 00 
  cprintf("cpu%d: panic: ", cpu->id);
  1008a1:	0f b6 00             	movzbl (%eax),%eax
  1008a4:	c7 04 24 db 61 10 00 	movl   $0x1061db,(%esp)
  1008ab:	89 44 24 04          	mov    %eax,0x4(%esp)
  1008af:	e8 0c fc ff ff       	call   1004c0 <cprintf>
  cprintf(s);
  1008b4:	8b 45 08             	mov    0x8(%ebp),%eax
  1008b7:	89 04 24             	mov    %eax,(%esp)
  1008ba:	e8 01 fc ff ff       	call   1004c0 <cprintf>
  cprintf("\n");
  1008bf:	c7 04 24 16 66 10 00 	movl   $0x106616,(%esp)
  1008c6:	e8 f5 fb ff ff       	call   1004c0 <cprintf>
  getcallerpcs(&s, pcs);
  1008cb:	8d 45 08             	lea    0x8(%ebp),%eax
  1008ce:	89 04 24             	mov    %eax,(%esp)
  1008d1:	89 74 24 04          	mov    %esi,0x4(%esp)
  1008d5:	e8 d6 2f 00 00       	call   1038b0 <getcallerpcs>
  for(i=0; i<10; i++)
    cprintf(" %p", pcs[i]);
  1008da:	8b 45 d0             	mov    -0x30(%ebp),%eax
  1008dd:	c7 04 24 ea 61 10 00 	movl   $0x1061ea,(%esp)
  1008e4:	89 44 24 04          	mov    %eax,0x4(%esp)
  1008e8:	e8 d3 fb ff ff       	call   1004c0 <cprintf>
  1008ed:	8b 44 9e fc          	mov    -0x4(%esi,%ebx,4),%eax
  1008f1:	83 c3 01             	add    $0x1,%ebx
  1008f4:	c7 04 24 ea 61 10 00 	movl   $0x1061ea,(%esp)
  1008fb:	89 44 24 04          	mov    %eax,0x4(%esp)
  1008ff:	e8 bc fb ff ff       	call   1004c0 <cprintf>
  cons.locking = 0;
  cprintf("cpu%d: panic: ", cpu->id);
  cprintf(s);
  cprintf("\n");
  getcallerpcs(&s, pcs);
  for(i=0; i<10; i++)
  100904:	83 fb 0b             	cmp    $0xb,%ebx
  100907:	75 e4                	jne    1008ed <panic+0x6d>
    cprintf(" %p", pcs[i]);
  panicked = 1; // freeze other CPU
  100909:	c7 05 a0 77 10 00 01 	movl   $0x1,0x1077a0
  100910:	00 00 00 
  100913:	eb fe                	jmp    100913 <panic+0x93>
  100915:	90                   	nop    
  100916:	90                   	nop    
  100917:	90                   	nop    
  100918:	90                   	nop    
  100919:	90                   	nop    
  10091a:	90                   	nop    
  10091b:	90                   	nop    
  10091c:	90                   	nop    
  10091d:	90                   	nop    
  10091e:	90                   	nop    
  10091f:	90                   	nop    

00100920 <exec>:
#include "x86.h"
#include "elf.h"

int
exec(char *path, char **argv)
{
  100920:	55                   	push   %ebp
  100921:	89 e5                	mov    %esp,%ebp
  100923:	57                   	push   %edi
  100924:	56                   	push   %esi
  100925:	53                   	push   %ebx
  100926:	81 ec 9c 00 00 00    	sub    $0x9c,%esp
  pde_t *pgdir, *oldpgdir;

  pgdir = 0;
  sz = 0;

  if((ip = namei(path)) == 0)
  10092c:	8b 45 08             	mov    0x8(%ebp),%eax
  10092f:	89 04 24             	mov    %eax,(%esp)
  100932:	e8 19 14 00 00       	call   101d50 <namei>
  100937:	89 c3                	mov    %eax,%ebx
  100939:	b8 ff ff ff ff       	mov    $0xffffffff,%eax
  10093e:	85 db                	test   %ebx,%ebx
  100940:	74 42                	je     100984 <exec+0x64>
    return -1;
  ilock(ip);
  100942:	89 1c 24             	mov    %ebx,(%esp)
  100945:	e8 76 11 00 00       	call   101ac0 <ilock>

  // Check ELF header
  if(readi(ip, (char*)&elf, 0, sizeof(elf)) < sizeof(elf))
  10094a:	8d 45 a0             	lea    -0x60(%ebp),%eax
  10094d:	c7 44 24 0c 34 00 00 	movl   $0x34,0xc(%esp)
  100954:	00 
  100955:	c7 44 24 08 00 00 00 	movl   $0x0,0x8(%esp)
  10095c:	00 
  10095d:	89 44 24 04          	mov    %eax,0x4(%esp)
  100961:	89 1c 24             	mov    %ebx,(%esp)
  100964:	e8 f7 0a 00 00       	call   101460 <readi>
  100969:	83 f8 33             	cmp    $0x33,%eax
  10096c:	76 09                	jbe    100977 <exec+0x57>
    goto bad;
  if(elf.magic != ELF_MAGIC)
  10096e:	81 7d a0 7f 45 4c 46 	cmpl   $0x464c457f,-0x60(%ebp)
  100975:	74 18                	je     10098f <exec+0x6f>

  return 0;

 bad:
  if(pgdir) freevm(pgdir);
  iunlockput(ip);
  100977:	89 1c 24             	mov    %ebx,(%esp)
  10097a:	e8 21 11 00 00       	call   101aa0 <iunlockput>
  10097f:	b8 ff ff ff ff       	mov    $0xffffffff,%eax
  return -1;
}
  100984:	81 c4 9c 00 00 00    	add    $0x9c,%esp
  10098a:	5b                   	pop    %ebx
  10098b:	5e                   	pop    %esi
  10098c:	5f                   	pop    %edi
  10098d:	5d                   	pop    %ebp
  10098e:	c3                   	ret    
  if(readi(ip, (char*)&elf, 0, sizeof(elf)) < sizeof(elf))
    goto bad;
  if(elf.magic != ELF_MAGIC)
    goto bad;

  if(!(pgdir = setupkvm()))
  10098f:	e8 0c 52 00 00       	call   105ba0 <setupkvm>
  100994:	85 c0                	test   %eax,%eax
  100996:	89 45 88             	mov    %eax,-0x78(%ebp)
  100999:	74 dc                	je     100977 <exec+0x57>
    goto bad;

  // Load program into memory.
  for(i=0, off=elf.phoff; i<elf.phnum; i++, off+=sizeof(ph)){
  10099b:	66 83 7d cc 00       	cmpw   $0x0,-0x34(%ebp)
  1009a0:	be 00 10 00 00       	mov    $0x1000,%esi
  1009a5:	8b 45 bc             	mov    -0x44(%ebp),%eax
  1009a8:	c7 45 8c 00 00 00 00 	movl   $0x0,-0x74(%ebp)
  1009af:	0f 84 d0 00 00 00    	je     100a85 <exec+0x165>
  1009b5:	89 c6                	mov    %eax,%esi
  1009b7:	31 ff                	xor    %edi,%edi
  1009b9:	c7 45 80 00 00 00 00 	movl   $0x0,-0x80(%ebp)
  1009c0:	eb 12                	jmp    1009d4 <exec+0xb4>
  1009c2:	0f b7 45 cc          	movzwl -0x34(%ebp),%eax
  1009c6:	83 c7 01             	add    $0x1,%edi
  1009c9:	39 f8                	cmp    %edi,%eax
  1009cb:	0f 8e 9a 00 00 00    	jle    100a6b <exec+0x14b>
  1009d1:	83 c6 20             	add    $0x20,%esi
    if(readi(ip, (char*)&ph, off, sizeof(ph)) != sizeof(ph))
  1009d4:	8d 55 d4             	lea    -0x2c(%ebp),%edx
  1009d7:	c7 44 24 0c 20 00 00 	movl   $0x20,0xc(%esp)
  1009de:	00 
  1009df:	89 74 24 08          	mov    %esi,0x8(%esp)
  1009e3:	89 54 24 04          	mov    %edx,0x4(%esp)
  1009e7:	89 1c 24             	mov    %ebx,(%esp)
  1009ea:	e8 71 0a 00 00       	call   101460 <readi>
  1009ef:	83 f8 20             	cmp    $0x20,%eax
  1009f2:	75 67                	jne    100a5b <exec+0x13b>
      goto bad;
    if(ph.type != ELF_PROG_LOAD)
  1009f4:	83 7d d4 01          	cmpl   $0x1,-0x2c(%ebp)
  1009f8:	75 c8                	jne    1009c2 <exec+0xa2>
      continue;
    if(ph.memsz < ph.filesz)
  1009fa:	8b 45 e8             	mov    -0x18(%ebp),%eax
  1009fd:	3b 45 e4             	cmp    -0x1c(%ebp),%eax
  100a00:	72 59                	jb     100a5b <exec+0x13b>
      goto bad;
    if(!(sz = allocuvm(pgdir, sz, ph.va + ph.memsz)))
  100a02:	03 45 dc             	add    -0x24(%ebp),%eax
  100a05:	8b 4d 80             	mov    -0x80(%ebp),%ecx
  100a08:	89 44 24 08          	mov    %eax,0x8(%esp)
  100a0c:	8b 45 88             	mov    -0x78(%ebp),%eax
  100a0f:	89 4c 24 04          	mov    %ecx,0x4(%esp)
  100a13:	89 04 24             	mov    %eax,(%esp)
  100a16:	e8 25 54 00 00       	call   105e40 <allocuvm>
  100a1b:	85 c0                	test   %eax,%eax
  100a1d:	89 85 70 ff ff ff    	mov    %eax,-0x90(%ebp)
  100a23:	74 36                	je     100a5b <exec+0x13b>
      goto bad;
    if(!loaduvm(pgdir, (char *)ph.va, ip, ph.offset, ph.filesz))
  100a25:	8b 45 e4             	mov    -0x1c(%ebp),%eax
  100a28:	8b 55 88             	mov    -0x78(%ebp),%edx
  100a2b:	89 5c 24 08          	mov    %ebx,0x8(%esp)
  100a2f:	89 44 24 10          	mov    %eax,0x10(%esp)
  100a33:	8b 45 d8             	mov    -0x28(%ebp),%eax
  100a36:	89 14 24             	mov    %edx,(%esp)
  100a39:	89 44 24 0c          	mov    %eax,0xc(%esp)
  100a3d:	8b 45 dc             	mov    -0x24(%ebp),%eax
  100a40:	89 44 24 04          	mov    %eax,0x4(%esp)
  100a44:	e8 c7 54 00 00       	call   105f10 <loaduvm>
  100a49:	85 c0                	test   %eax,%eax
  100a4b:	74 0e                	je     100a5b <exec+0x13b>
      goto bad;
    if(ph.type != ELF_PROG_LOAD)
      continue;
    if(ph.memsz < ph.filesz)
      goto bad;
    if(!(sz = allocuvm(pgdir, sz, ph.va + ph.memsz)))
  100a4d:	8b 8d 70 ff ff ff    	mov    -0x90(%ebp),%ecx
  100a53:	89 4d 80             	mov    %ecx,-0x80(%ebp)
  100a56:	e9 67 ff ff ff       	jmp    1009c2 <exec+0xa2>
  freevm(oldpgdir);

  return 0;

 bad:
  if(pgdir) freevm(pgdir);
  100a5b:	8b 7d 88             	mov    -0x78(%ebp),%edi
  100a5e:	89 3c 24             	mov    %edi,(%esp)
  100a61:	e8 9a 52 00 00       	call   105d00 <freevm>
  100a66:	e9 0c ff ff ff       	jmp    100977 <exec+0x57>

  if(!(pgdir = setupkvm()))
    goto bad;

  // Load program into memory.
  for(i=0, off=elf.phoff; i<elf.phnum; i++, off+=sizeof(ph)){
  100a6b:	8b 7d 80             	mov    -0x80(%ebp),%edi
  100a6e:	81 c7 ff 0f 00 00    	add    $0xfff,%edi
  100a74:	81 e7 00 f0 ff ff    	and    $0xfffff000,%edi
  100a7a:	89 fe                	mov    %edi,%esi
  100a7c:	89 7d 8c             	mov    %edi,-0x74(%ebp)
  100a7f:	81 c6 00 10 00 00    	add    $0x1000,%esi
    if(!(sz = allocuvm(pgdir, sz, ph.va + ph.memsz)))
      goto bad;
    if(!loaduvm(pgdir, (char *)ph.va, ip, ph.offset, ph.filesz))
      goto bad;
  }
  iunlockput(ip);
  100a85:	89 1c 24             	mov    %ebx,(%esp)
  100a88:	e8 13 10 00 00       	call   101aa0 <iunlockput>

  // Allocate and initialize stack at sz
  sz = spbottom = PGROUNDUP(sz);
  if(!(sz = allocuvm(pgdir, sz, sz + PGSIZE)))
  100a8d:	8b 45 8c             	mov    -0x74(%ebp),%eax
  100a90:	8b 55 88             	mov    -0x78(%ebp),%edx
  100a93:	89 74 24 08          	mov    %esi,0x8(%esp)
  100a97:	89 44 24 04          	mov    %eax,0x4(%esp)
  100a9b:	89 14 24             	mov    %edx,(%esp)
  100a9e:	e8 9d 53 00 00       	call   105e40 <allocuvm>
  100aa3:	85 c0                	test   %eax,%eax
  100aa5:	89 85 74 ff ff ff    	mov    %eax,-0x8c(%ebp)
  100aab:	74 ae                	je     100a5b <exec+0x13b>
    goto bad;
  mem = uva2ka(pgdir, (char *)spbottom);
  100aad:	8b 5d 88             	mov    -0x78(%ebp),%ebx

  arglen = 0;
  for(argc=0; argv[argc]; argc++)
  100ab0:	31 f6                	xor    %esi,%esi

  // Allocate and initialize stack at sz
  sz = spbottom = PGROUNDUP(sz);
  if(!(sz = allocuvm(pgdir, sz, sz + PGSIZE)))
    goto bad;
  mem = uva2ka(pgdir, (char *)spbottom);
  100ab2:	8b 4d 8c             	mov    -0x74(%ebp),%ecx
  100ab5:	89 1c 24             	mov    %ebx,(%esp)

  arglen = 0;
  for(argc=0; argv[argc]; argc++)
  100ab8:	31 db                	xor    %ebx,%ebx

  // Allocate and initialize stack at sz
  sz = spbottom = PGROUNDUP(sz);
  if(!(sz = allocuvm(pgdir, sz, sz + PGSIZE)))
    goto bad;
  mem = uva2ka(pgdir, (char *)spbottom);
  100aba:	89 4c 24 04          	mov    %ecx,0x4(%esp)
  100abe:	e8 8d 4f 00 00       	call   105a50 <uva2ka>

  arglen = 0;
  for(argc=0; argv[argc]; argc++)
  100ac3:	8b 7d 0c             	mov    0xc(%ebp),%edi

  // Allocate and initialize stack at sz
  sz = spbottom = PGROUNDUP(sz);
  if(!(sz = allocuvm(pgdir, sz, sz + PGSIZE)))
    goto bad;
  mem = uva2ka(pgdir, (char *)spbottom);
  100ac6:	89 85 7c ff ff ff    	mov    %eax,-0x84(%ebp)

  arglen = 0;
  for(argc=0; argv[argc]; argc++)
  100acc:	8b 17                	mov    (%edi),%edx
  100ace:	85 d2                	test   %edx,%edx
  100ad0:	0f 84 7c 01 00 00    	je     100c52 <exec+0x332>
    arglen += strlen(argv[argc]) + 1;
  100ad6:	89 14 24             	mov    %edx,(%esp)
  if(!(sz = allocuvm(pgdir, sz, sz + PGSIZE)))
    goto bad;
  mem = uva2ka(pgdir, (char *)spbottom);

  arglen = 0;
  for(argc=0; argv[argc]; argc++)
  100ad9:	83 c3 01             	add    $0x1,%ebx
    arglen += strlen(argv[argc]) + 1;
  100adc:	e8 9f 31 00 00       	call   103c80 <strlen>
  if(!(sz = allocuvm(pgdir, sz, sz + PGSIZE)))
    goto bad;
  mem = uva2ka(pgdir, (char *)spbottom);

  arglen = 0;
  for(argc=0; argv[argc]; argc++)
  100ae1:	8b 4d 0c             	mov    0xc(%ebp),%ecx
  100ae4:	89 9d 78 ff ff ff    	mov    %ebx,-0x88(%ebp)
  100aea:	8b 14 99             	mov    (%ecx,%ebx,4),%edx
    arglen += strlen(argv[argc]) + 1;
  100aed:	01 f0                	add    %esi,%eax
  100aef:	8d 70 01             	lea    0x1(%eax),%esi
  if(!(sz = allocuvm(pgdir, sz, sz + PGSIZE)))
    goto bad;
  mem = uva2ka(pgdir, (char *)spbottom);

  arglen = 0;
  for(argc=0; argv[argc]; argc++)
  100af2:	85 d2                	test   %edx,%edx
  100af4:	75 e0                	jne    100ad6 <exec+0x1b6>
  100af6:	89 d9                	mov    %ebx,%ecx
  100af8:	83 c0 04             	add    $0x4,%eax
  100afb:	8d 14 9d 04 00 00 00 	lea    0x4(,%ebx,4),%edx
  100b02:	83 eb 01             	sub    $0x1,%ebx
  100b05:	83 e0 fc             	and    $0xfffffffc,%eax
  100b08:	c1 e1 02             	shl    $0x2,%ecx
  100b0b:	89 5d 90             	mov    %ebx,-0x70(%ebp)
    arglen += strlen(argv[argc]) + 1;
  arglen = (arglen+3) & ~3;

  sp = sz;
  argp = sz - arglen - 4*(argc+1);
  100b0e:	8b 9d 74 ff ff ff    	mov    -0x8c(%ebp),%ebx
  100b14:	29 c3                	sub    %eax,%ebx
  100b16:	29 d3                	sub    %edx,%ebx

  // Copy argv strings and pointers to stack.
  *(uint*)(mem+argp-spbottom + 4*argc) = 0;  // argv[argc]
  100b18:	8b 95 7c ff ff ff    	mov    -0x84(%ebp),%edx
  for(argc=0; argv[argc]; argc++)
    arglen += strlen(argv[argc]) + 1;
  arglen = (arglen+3) & ~3;

  sp = sz;
  argp = sz - arglen - 4*(argc+1);
  100b1e:	89 5d 84             	mov    %ebx,-0x7c(%ebp)

  // Copy argv strings and pointers to stack.
  *(uint*)(mem+argp-spbottom + 4*argc) = 0;  // argv[argc]
  100b21:	01 da                	add    %ebx,%edx
  100b23:	2b 55 8c             	sub    -0x74(%ebp),%edx
  100b26:	c7 04 0a 00 00 00 00 	movl   $0x0,(%edx,%ecx,1)
  for(i=argc-1; i>=0; i--){
  100b2d:	8b 45 90             	mov    -0x70(%ebp),%eax
  100b30:	85 c0                	test   %eax,%eax
  100b32:	78 53                	js     100b87 <exec+0x267>
  100b34:	8b 45 90             	mov    -0x70(%ebp),%eax
  100b37:	8b 7d 0c             	mov    0xc(%ebp),%edi
  100b3a:	8b 9d 74 ff ff ff    	mov    -0x8c(%ebp),%ebx
  100b40:	c1 e0 02             	shl    $0x2,%eax
  100b43:	8d 34 38             	lea    (%eax,%edi,1),%esi
  100b46:	8d 3c 02             	lea    (%edx,%eax,1),%edi
    len = strlen(argv[i]) + 1;
  100b49:	8b 06                	mov    (%esi),%eax
  100b4b:	89 04 24             	mov    %eax,(%esp)
  100b4e:	e8 2d 31 00 00       	call   103c80 <strlen>
    sp -= len;
  100b53:	83 c0 01             	add    $0x1,%eax
  100b56:	29 c3                	sub    %eax,%ebx
    memmove(mem+sp-spbottom, argv[i], len);
  100b58:	89 44 24 08          	mov    %eax,0x8(%esp)
  100b5c:	8b 06                	mov    (%esi),%eax
  sp = sz;
  argp = sz - arglen - 4*(argc+1);

  // Copy argv strings and pointers to stack.
  *(uint*)(mem+argp-spbottom + 4*argc) = 0;  // argv[argc]
  for(i=argc-1; i>=0; i--){
  100b5e:	83 ee 04             	sub    $0x4,%esi
    len = strlen(argv[i]) + 1;
    sp -= len;
    memmove(mem+sp-spbottom, argv[i], len);
  100b61:	89 44 24 04          	mov    %eax,0x4(%esp)
  100b65:	8b 85 7c ff ff ff    	mov    -0x84(%ebp),%eax
  100b6b:	01 d8                	add    %ebx,%eax
  100b6d:	2b 45 8c             	sub    -0x74(%ebp),%eax
  100b70:	89 04 24             	mov    %eax,(%esp)
  100b73:	e8 a8 2f 00 00       	call   103b20 <memmove>
    *(uint*)(mem+argp-spbottom + 4*i) = sp;  // argv[i]
  100b78:	89 1f                	mov    %ebx,(%edi)
  sp = sz;
  argp = sz - arglen - 4*(argc+1);

  // Copy argv strings and pointers to stack.
  *(uint*)(mem+argp-spbottom + 4*argc) = 0;  // argv[argc]
  for(i=argc-1; i>=0; i--){
  100b7a:	83 ef 04             	sub    $0x4,%edi
  100b7d:	83 6d 90 01          	subl   $0x1,-0x70(%ebp)
  100b81:	83 7d 90 ff          	cmpl   $0xffffffff,-0x70(%ebp)
  100b85:	75 c2                	jne    100b49 <exec+0x229>
  }

  // Stack frame for main(argc, argv), below arguments.
  sp = argp;
  sp -= 4;
  *(uint*)(mem+sp-spbottom) = argp;
  100b87:	8b 55 84             	mov    -0x7c(%ebp),%edx
  100b8a:	8b 8d 7c ff ff ff    	mov    -0x84(%ebp),%ecx
  sp -= 4;
  *(uint*)(mem+sp-spbottom) = argc;
  sp -= 4;
  100b90:	89 d6                	mov    %edx,%esi
  }

  // Stack frame for main(argc, argv), below arguments.
  sp = argp;
  sp -= 4;
  *(uint*)(mem+sp-spbottom) = argp;
  100b92:	8d 44 0a fc          	lea    -0x4(%edx,%ecx,1),%eax
  sp -= 4;
  *(uint*)(mem+sp-spbottom) = argc;
  sp -= 4;
  100b96:	83 ee 0c             	sub    $0xc,%esi
  }

  // Stack frame for main(argc, argv), below arguments.
  sp = argp;
  sp -= 4;
  *(uint*)(mem+sp-spbottom) = argp;
  100b99:	2b 45 8c             	sub    -0x74(%ebp),%eax
  100b9c:	89 10                	mov    %edx,(%eax)
  sp -= 4;
  *(uint*)(mem+sp-spbottom) = argc;
  100b9e:	8b 9d 78 ff ff ff    	mov    -0x88(%ebp),%ebx
  100ba4:	8d 44 0a f8          	lea    -0x8(%edx,%ecx,1),%eax
  100ba8:	2b 45 8c             	sub    -0x74(%ebp),%eax
  100bab:	89 18                	mov    %ebx,(%eax)
  sp -= 4;
  *(uint*)(mem+sp-spbottom) = 0xffffffff;   // fake return pc
  100bad:	89 c8                	mov    %ecx,%eax
  100baf:	01 f0                	add    %esi,%eax
  100bb1:	2b 45 8c             	sub    -0x74(%ebp),%eax
  100bb4:	c7 00 ff ff ff ff    	movl   $0xffffffff,(%eax)

  // Save program name for debugging.
  for(last=s=path; *s; s++)
  100bba:	8b 7d 08             	mov    0x8(%ebp),%edi
  100bbd:	0f b6 17             	movzbl (%edi),%edx
  100bc0:	89 f9                	mov    %edi,%ecx
  100bc2:	84 d2                	test   %dl,%dl
  100bc4:	74 1a                	je     100be0 <exec+0x2c0>
  100bc6:	89 f8                	mov    %edi,%eax
  100bc8:	83 c0 01             	add    $0x1,%eax
  100bcb:	eb 0a                	jmp    100bd7 <exec+0x2b7>
  100bcd:	0f b6 10             	movzbl (%eax),%edx
  100bd0:	83 c0 01             	add    $0x1,%eax
  100bd3:	84 d2                	test   %dl,%dl
  100bd5:	74 09                	je     100be0 <exec+0x2c0>
    if(*s == '/')
  100bd7:	80 fa 2f             	cmp    $0x2f,%dl
  100bda:	75 f1                	jne    100bcd <exec+0x2ad>
  100bdc:	89 c1                	mov    %eax,%ecx
  100bde:	eb ed                	jmp    100bcd <exec+0x2ad>
      last = s+1;
  safestrcpy(proc->name, last, sizeof(proc->name));
  100be0:	65 a1 04 00 00 00    	mov    %gs:0x4,%eax
  100be6:	89 4c 24 04          	mov    %ecx,0x4(%esp)
  100bea:	c7 44 24 08 10 00 00 	movl   $0x10,0x8(%esp)
  100bf1:	00 
  100bf2:	83 c0 6c             	add    $0x6c,%eax
  100bf5:	89 04 24             	mov    %eax,(%esp)
  100bf8:	e8 43 30 00 00       	call   103c40 <safestrcpy>

  // Commit to the user image.
  oldpgdir = proc->pgdir;
  100bfd:	65 a1 04 00 00 00    	mov    %gs:0x4,%eax
  proc->pgdir = pgdir;
  100c03:	8b 55 88             	mov    -0x78(%ebp),%edx
    if(*s == '/')
      last = s+1;
  safestrcpy(proc->name, last, sizeof(proc->name));

  // Commit to the user image.
  oldpgdir = proc->pgdir;
  100c06:	8b 58 04             	mov    0x4(%eax),%ebx
  proc->pgdir = pgdir;
  100c09:	89 50 04             	mov    %edx,0x4(%eax)
  proc->sz = sz;
  100c0c:	65 a1 04 00 00 00    	mov    %gs:0x4,%eax
  100c12:	8b 8d 74 ff ff ff    	mov    -0x8c(%ebp),%ecx
  100c18:	89 08                	mov    %ecx,(%eax)
  proc->tf->eip = elf.entry;  // main
  100c1a:	65 a1 04 00 00 00    	mov    %gs:0x4,%eax
  100c20:	8b 50 18             	mov    0x18(%eax),%edx
  100c23:	8b 45 b8             	mov    -0x48(%ebp),%eax
  100c26:	89 42 38             	mov    %eax,0x38(%edx)
  proc->tf->esp = sp;
  100c29:	65 a1 04 00 00 00    	mov    %gs:0x4,%eax
  100c2f:	8b 40 18             	mov    0x18(%eax),%eax
  100c32:	89 70 44             	mov    %esi,0x44(%eax)

  switchuvm(proc); 
  100c35:	65 a1 04 00 00 00    	mov    %gs:0x4,%eax
  100c3b:	89 04 24             	mov    %eax,(%esp)
  100c3e:	e8 7d 53 00 00       	call   105fc0 <switchuvm>

  freevm(oldpgdir);
  100c43:	89 1c 24             	mov    %ebx,(%esp)
  100c46:	e8 b5 50 00 00       	call   105d00 <freevm>
  100c4b:	31 c0                	xor    %eax,%eax
  100c4d:	e9 32 fd ff ff       	jmp    100984 <exec+0x64>
  if(!(sz = allocuvm(pgdir, sz, sz + PGSIZE)))
    goto bad;
  mem = uva2ka(pgdir, (char *)spbottom);

  arglen = 0;
  for(argc=0; argv[argc]; argc++)
  100c52:	31 c0                	xor    %eax,%eax
  100c54:	b2 04                	mov    $0x4,%dl
  100c56:	31 c9                	xor    %ecx,%ecx
  100c58:	c7 85 78 ff ff ff 00 	movl   $0x0,-0x88(%ebp)
  100c5f:	00 00 00 
  100c62:	c7 45 90 ff ff ff ff 	movl   $0xffffffff,-0x70(%ebp)
  100c69:	e9 a0 fe ff ff       	jmp    100b0e <exec+0x1ee>
  100c6e:	90                   	nop    
  100c6f:	90                   	nop    

00100c70 <filewrite>:
}

// Write to file f.  Addr is kernel address.
int
filewrite(struct file *f, char *addr, int n)
{
  100c70:	55                   	push   %ebp
  100c71:	89 e5                	mov    %esp,%ebp
  100c73:	83 ec 28             	sub    $0x28,%esp
  100c76:	89 5d f4             	mov    %ebx,-0xc(%ebp)
  100c79:	8b 5d 08             	mov    0x8(%ebp),%ebx
  100c7c:	89 75 f8             	mov    %esi,-0x8(%ebp)
  100c7f:	8b 75 10             	mov    0x10(%ebp),%esi
  100c82:	89 7d fc             	mov    %edi,-0x4(%ebp)
  100c85:	8b 7d 0c             	mov    0xc(%ebp),%edi
  int r;

  if(f->writable == 0)
  100c88:	80 7b 09 00          	cmpb   $0x0,0x9(%ebx)
  100c8c:	74 54                	je     100ce2 <filewrite+0x72>
    return -1;
  if(f->type == FD_PIPE)
  100c8e:	8b 03                	mov    (%ebx),%eax
  100c90:	83 f8 01             	cmp    $0x1,%eax
  100c93:	74 54                	je     100ce9 <filewrite+0x79>
    return pipewrite(f->pipe, addr, n);
  if(f->type == FD_INODE){
  100c95:	83 f8 02             	cmp    $0x2,%eax
  100c98:	75 66                	jne    100d00 <filewrite+0x90>
    ilock(f->ip);
  100c9a:	8b 43 10             	mov    0x10(%ebx),%eax
  100c9d:	89 04 24             	mov    %eax,(%esp)
  100ca0:	e8 1b 0e 00 00       	call   101ac0 <ilock>
    if((r = writei(f->ip, addr, f->off, n)) > 0)
  100ca5:	89 74 24 0c          	mov    %esi,0xc(%esp)
  100ca9:	8b 43 14             	mov    0x14(%ebx),%eax
  100cac:	89 7c 24 04          	mov    %edi,0x4(%esp)
  100cb0:	89 44 24 08          	mov    %eax,0x8(%esp)
  100cb4:	8b 43 10             	mov    0x10(%ebx),%eax
  100cb7:	89 04 24             	mov    %eax,(%esp)
  100cba:	e8 71 06 00 00       	call   101330 <writei>
  100cbf:	85 c0                	test   %eax,%eax
  100cc1:	89 c6                	mov    %eax,%esi
  100cc3:	7e 03                	jle    100cc8 <filewrite+0x58>
      f->off += r;
  100cc5:	01 43 14             	add    %eax,0x14(%ebx)
    iunlock(f->ip);
  100cc8:	8b 43 10             	mov    0x10(%ebx),%eax
  100ccb:	89 04 24             	mov    %eax,(%esp)
  100cce:	e8 cd 09 00 00       	call   1016a0 <iunlock>
    return r;
  }
  panic("filewrite");
}
  100cd3:	89 f0                	mov    %esi,%eax
  100cd5:	8b 5d f4             	mov    -0xc(%ebp),%ebx
  100cd8:	8b 75 f8             	mov    -0x8(%ebp),%esi
  100cdb:	8b 7d fc             	mov    -0x4(%ebp),%edi
  100cde:	89 ec                	mov    %ebp,%esp
  100ce0:	5d                   	pop    %ebp
  100ce1:	c3                   	ret    
    if((r = writei(f->ip, addr, f->off, n)) > 0)
      f->off += r;
    iunlock(f->ip);
    return r;
  }
  panic("filewrite");
  100ce2:	be ff ff ff ff       	mov    $0xffffffff,%esi
  100ce7:	eb ea                	jmp    100cd3 <filewrite+0x63>
  int r;

  if(f->writable == 0)
    return -1;
  if(f->type == FD_PIPE)
    return pipewrite(f->pipe, addr, n);
  100ce9:	8b 43 0c             	mov    0xc(%ebx),%eax
      f->off += r;
    iunlock(f->ip);
    return r;
  }
  panic("filewrite");
}
  100cec:	8b 75 f8             	mov    -0x8(%ebp),%esi
  100cef:	8b 5d f4             	mov    -0xc(%ebp),%ebx
  100cf2:	8b 7d fc             	mov    -0x4(%ebp),%edi
  int r;

  if(f->writable == 0)
    return -1;
  if(f->type == FD_PIPE)
    return pipewrite(f->pipe, addr, n);
  100cf5:	89 45 08             	mov    %eax,0x8(%ebp)
      f->off += r;
    iunlock(f->ip);
    return r;
  }
  panic("filewrite");
}
  100cf8:	89 ec                	mov    %ebp,%esp
  100cfa:	5d                   	pop    %ebp
  int r;

  if(f->writable == 0)
    return -1;
  if(f->type == FD_PIPE)
    return pipewrite(f->pipe, addr, n);
  100cfb:	e9 d0 1f 00 00       	jmp    102cd0 <pipewrite>
    if((r = writei(f->ip, addr, f->off, n)) > 0)
      f->off += r;
    iunlock(f->ip);
    return r;
  }
  panic("filewrite");
  100d00:	c7 04 24 ff 61 10 00 	movl   $0x1061ff,(%esp)
  100d07:	e8 74 fb ff ff       	call   100880 <panic>
  100d0c:	8d 74 26 00          	lea    0x0(%esi),%esi

00100d10 <fileread>:
}

// Read from file f.  Addr is kernel address.
int
fileread(struct file *f, char *addr, int n)
{
  100d10:	55                   	push   %ebp
  100d11:	89 e5                	mov    %esp,%ebp
  100d13:	83 ec 28             	sub    $0x28,%esp
  100d16:	89 5d f4             	mov    %ebx,-0xc(%ebp)
  100d19:	8b 5d 08             	mov    0x8(%ebp),%ebx
  100d1c:	89 75 f8             	mov    %esi,-0x8(%ebp)
  100d1f:	8b 75 10             	mov    0x10(%ebp),%esi
  100d22:	89 7d fc             	mov    %edi,-0x4(%ebp)
  100d25:	8b 7d 0c             	mov    0xc(%ebp),%edi
  int r;

  if(f->readable == 0)
  100d28:	80 7b 08 00          	cmpb   $0x0,0x8(%ebx)
  100d2c:	74 54                	je     100d82 <fileread+0x72>
    return -1;
  if(f->type == FD_PIPE)
  100d2e:	8b 03                	mov    (%ebx),%eax
  100d30:	83 f8 01             	cmp    $0x1,%eax
  100d33:	74 54                	je     100d89 <fileread+0x79>
    return piperead(f->pipe, addr, n);
  if(f->type == FD_INODE){
  100d35:	83 f8 02             	cmp    $0x2,%eax
  100d38:	75 66                	jne    100da0 <fileread+0x90>
    ilock(f->ip);
  100d3a:	8b 43 10             	mov    0x10(%ebx),%eax
  100d3d:	89 04 24             	mov    %eax,(%esp)
  100d40:	e8 7b 0d 00 00       	call   101ac0 <ilock>
    if((r = readi(f->ip, addr, f->off, n)) > 0)
  100d45:	89 74 24 0c          	mov    %esi,0xc(%esp)
  100d49:	8b 43 14             	mov    0x14(%ebx),%eax
  100d4c:	89 7c 24 04          	mov    %edi,0x4(%esp)
  100d50:	89 44 24 08          	mov    %eax,0x8(%esp)
  100d54:	8b 43 10             	mov    0x10(%ebx),%eax
  100d57:	89 04 24             	mov    %eax,(%esp)
  100d5a:	e8 01 07 00 00       	call   101460 <readi>
  100d5f:	85 c0                	test   %eax,%eax
  100d61:	89 c6                	mov    %eax,%esi
  100d63:	7e 03                	jle    100d68 <fileread+0x58>
      f->off += r;
  100d65:	01 43 14             	add    %eax,0x14(%ebx)
    iunlock(f->ip);
  100d68:	8b 43 10             	mov    0x10(%ebx),%eax
  100d6b:	89 04 24             	mov    %eax,(%esp)
  100d6e:	e8 2d 09 00 00       	call   1016a0 <iunlock>
    return r;
  }
  panic("fileread");
}
  100d73:	89 f0                	mov    %esi,%eax
  100d75:	8b 5d f4             	mov    -0xc(%ebp),%ebx
  100d78:	8b 75 f8             	mov    -0x8(%ebp),%esi
  100d7b:	8b 7d fc             	mov    -0x4(%ebp),%edi
  100d7e:	89 ec                	mov    %ebp,%esp
  100d80:	5d                   	pop    %ebp
  100d81:	c3                   	ret    
    if((r = readi(f->ip, addr, f->off, n)) > 0)
      f->off += r;
    iunlock(f->ip);
    return r;
  }
  panic("fileread");
  100d82:	be ff ff ff ff       	mov    $0xffffffff,%esi
  100d87:	eb ea                	jmp    100d73 <fileread+0x63>
  int r;

  if(f->readable == 0)
    return -1;
  if(f->type == FD_PIPE)
    return piperead(f->pipe, addr, n);
  100d89:	8b 43 0c             	mov    0xc(%ebx),%eax
      f->off += r;
    iunlock(f->ip);
    return r;
  }
  panic("fileread");
}
  100d8c:	8b 75 f8             	mov    -0x8(%ebp),%esi
  100d8f:	8b 5d f4             	mov    -0xc(%ebp),%ebx
  100d92:	8b 7d fc             	mov    -0x4(%ebp),%edi
  int r;

  if(f->readable == 0)
    return -1;
  if(f->type == FD_PIPE)
    return piperead(f->pipe, addr, n);
  100d95:	89 45 08             	mov    %eax,0x8(%ebp)
      f->off += r;
    iunlock(f->ip);
    return r;
  }
  panic("fileread");
}
  100d98:	89 ec                	mov    %ebp,%esp
  100d9a:	5d                   	pop    %ebp
  int r;

  if(f->readable == 0)
    return -1;
  if(f->type == FD_PIPE)
    return piperead(f->pipe, addr, n);
  100d9b:	e9 30 1e 00 00       	jmp    102bd0 <piperead>
    if((r = readi(f->ip, addr, f->off, n)) > 0)
      f->off += r;
    iunlock(f->ip);
    return r;
  }
  panic("fileread");
  100da0:	c7 04 24 09 62 10 00 	movl   $0x106209,(%esp)
  100da7:	e8 d4 fa ff ff       	call   100880 <panic>
  100dac:	8d 74 26 00          	lea    0x0(%esi),%esi

00100db0 <filestat>:
}

// Get metadata about file f.
int
filestat(struct file *f, struct stat *st)
{
  100db0:	55                   	push   %ebp
  if(f->type == FD_INODE){
  100db1:	b8 ff ff ff ff       	mov    $0xffffffff,%eax
}

// Get metadata about file f.
int
filestat(struct file *f, struct stat *st)
{
  100db6:	89 e5                	mov    %esp,%ebp
  100db8:	53                   	push   %ebx
  100db9:	83 ec 14             	sub    $0x14,%esp
  100dbc:	8b 5d 08             	mov    0x8(%ebp),%ebx
  if(f->type == FD_INODE){
  100dbf:	83 3b 02             	cmpl   $0x2,(%ebx)
  100dc2:	74 0c                	je     100dd0 <filestat+0x20>
    stati(f->ip, st);
    iunlock(f->ip);
    return 0;
  }
  return -1;
}
  100dc4:	83 c4 14             	add    $0x14,%esp
  100dc7:	5b                   	pop    %ebx
  100dc8:	5d                   	pop    %ebp
  100dc9:	c3                   	ret    
  100dca:	8d b6 00 00 00 00    	lea    0x0(%esi),%esi
// Get metadata about file f.
int
filestat(struct file *f, struct stat *st)
{
  if(f->type == FD_INODE){
    ilock(f->ip);
  100dd0:	8b 43 10             	mov    0x10(%ebx),%eax
  100dd3:	89 04 24             	mov    %eax,(%esp)
  100dd6:	e8 e5 0c 00 00       	call   101ac0 <ilock>
    stati(f->ip, st);
  100ddb:	8b 45 0c             	mov    0xc(%ebp),%eax
  100dde:	89 44 24 04          	mov    %eax,0x4(%esp)
  100de2:	8b 43 10             	mov    0x10(%ebx),%eax
  100de5:	89 04 24             	mov    %eax,(%esp)
  100de8:	e8 c3 01 00 00       	call   100fb0 <stati>
    iunlock(f->ip);
  100ded:	8b 43 10             	mov    0x10(%ebx),%eax
  100df0:	89 04 24             	mov    %eax,(%esp)
  100df3:	e8 a8 08 00 00       	call   1016a0 <iunlock>
    return 0;
  }
  return -1;
}
  100df8:	83 c4 14             	add    $0x14,%esp
filestat(struct file *f, struct stat *st)
{
  if(f->type == FD_INODE){
    ilock(f->ip);
    stati(f->ip, st);
    iunlock(f->ip);
  100dfb:	31 c0                	xor    %eax,%eax
    return 0;
  }
  return -1;
}
  100dfd:	5b                   	pop    %ebx
  100dfe:	5d                   	pop    %ebp
  100dff:	c3                   	ret    

00100e00 <filedup>:
}

// Increment ref count for file f.
struct file*
filedup(struct file *f)
{
  100e00:	55                   	push   %ebp
  100e01:	89 e5                	mov    %esp,%ebp
  100e03:	53                   	push   %ebx
  100e04:	83 ec 04             	sub    $0x4,%esp
  100e07:	8b 5d 08             	mov    0x8(%ebp),%ebx
  acquire(&ftable.lock);
  100e0a:	c7 04 24 60 90 10 00 	movl   $0x109060,(%esp)
  100e11:	e8 fa 2b 00 00       	call   103a10 <acquire>
  if(f->ref < 1)
  100e16:	8b 43 04             	mov    0x4(%ebx),%eax
  100e19:	85 c0                	test   %eax,%eax
  100e1b:	7e 1a                	jle    100e37 <filedup+0x37>
    panic("filedup");
  f->ref++;
  100e1d:	83 c0 01             	add    $0x1,%eax
  100e20:	89 43 04             	mov    %eax,0x4(%ebx)
  release(&ftable.lock);
  100e23:	c7 04 24 60 90 10 00 	movl   $0x109060,(%esp)
  100e2a:	e8 a1 2b 00 00       	call   1039d0 <release>
  return f;
}
  100e2f:	89 d8                	mov    %ebx,%eax
  100e31:	83 c4 04             	add    $0x4,%esp
  100e34:	5b                   	pop    %ebx
  100e35:	5d                   	pop    %ebp
  100e36:	c3                   	ret    
struct file*
filedup(struct file *f)
{
  acquire(&ftable.lock);
  if(f->ref < 1)
    panic("filedup");
  100e37:	c7 04 24 12 62 10 00 	movl   $0x106212,(%esp)
  100e3e:	e8 3d fa ff ff       	call   100880 <panic>
  100e43:	8d b6 00 00 00 00    	lea    0x0(%esi),%esi
  100e49:	8d bc 27 00 00 00 00 	lea    0x0(%edi),%edi

00100e50 <filealloc>:
}

// Allocate a file structure.
struct file*
filealloc(void)
{
  100e50:	55                   	push   %ebp
  100e51:	89 e5                	mov    %esp,%ebp
  100e53:	53                   	push   %ebx
  struct file *f;

  acquire(&ftable.lock);
  100e54:	bb 94 90 10 00       	mov    $0x109094,%ebx
}

// Allocate a file structure.
struct file*
filealloc(void)
{
  100e59:	83 ec 04             	sub    $0x4,%esp
  struct file *f;

  acquire(&ftable.lock);
  100e5c:	c7 04 24 60 90 10 00 	movl   $0x109060,(%esp)
  100e63:	e8 a8 2b 00 00       	call   103a10 <acquire>
  100e68:	eb 11                	jmp    100e7b <filealloc+0x2b>
  100e6a:	8d b6 00 00 00 00    	lea    0x0(%esi),%esi
  for(f = ftable.file; f < ftable.file + NFILE; f++){
  100e70:	83 c3 18             	add    $0x18,%ebx
  100e73:	81 fb f4 99 10 00    	cmp    $0x1099f4,%ebx
  100e79:	74 22                	je     100e9d <filealloc+0x4d>
    if(f->ref == 0){
  100e7b:	8b 43 04             	mov    0x4(%ebx),%eax
  100e7e:	85 c0                	test   %eax,%eax
  100e80:	75 ee                	jne    100e70 <filealloc+0x20>
      f->ref = 1;
  100e82:	c7 43 04 01 00 00 00 	movl   $0x1,0x4(%ebx)
      release(&ftable.lock);
  100e89:	c7 04 24 60 90 10 00 	movl   $0x109060,(%esp)
  100e90:	e8 3b 2b 00 00       	call   1039d0 <release>
      return f;
    }
  }
  release(&ftable.lock);
  return 0;
}
  100e95:	89 d8                	mov    %ebx,%eax
  100e97:	83 c4 04             	add    $0x4,%esp
  100e9a:	5b                   	pop    %ebx
  100e9b:	5d                   	pop    %ebp
  100e9c:	c3                   	ret    
      f->ref = 1;
      release(&ftable.lock);
      return f;
    }
  }
  release(&ftable.lock);
  100e9d:	c7 04 24 60 90 10 00 	movl   $0x109060,(%esp)
  100ea4:	31 db                	xor    %ebx,%ebx
  100ea6:	e8 25 2b 00 00       	call   1039d0 <release>
  return 0;
}
  100eab:	89 d8                	mov    %ebx,%eax
  100ead:	83 c4 04             	add    $0x4,%esp
  100eb0:	5b                   	pop    %ebx
  100eb1:	5d                   	pop    %ebp
  100eb2:	c3                   	ret    
  100eb3:	8d b6 00 00 00 00    	lea    0x0(%esi),%esi
  100eb9:	8d bc 27 00 00 00 00 	lea    0x0(%edi),%edi

00100ec0 <fileclose>:
}

// Close file f.  (Decrement ref count, close when reaches 0.)
void
fileclose(struct file *f)
{
  100ec0:	55                   	push   %ebp
  100ec1:	89 e5                	mov    %esp,%ebp
  100ec3:	83 ec 28             	sub    $0x28,%esp
  100ec6:	89 5d f4             	mov    %ebx,-0xc(%ebp)
  100ec9:	8b 5d 08             	mov    0x8(%ebp),%ebx
  100ecc:	89 75 f8             	mov    %esi,-0x8(%ebp)
  100ecf:	89 7d fc             	mov    %edi,-0x4(%ebp)
  struct file ff;

  acquire(&ftable.lock);
  100ed2:	c7 04 24 60 90 10 00 	movl   $0x109060,(%esp)
  100ed9:	e8 32 2b 00 00       	call   103a10 <acquire>
  if(f->ref < 1)
  100ede:	8b 43 04             	mov    0x4(%ebx),%eax
  100ee1:	85 c0                	test   %eax,%eax
  100ee3:	0f 8e 96 00 00 00    	jle    100f7f <fileclose+0xbf>
    panic("fileclose");
  if(--f->ref > 0){
  100ee9:	83 e8 01             	sub    $0x1,%eax
  100eec:	85 c0                	test   %eax,%eax
  100eee:	89 43 04             	mov    %eax,0x4(%ebx)
  100ef1:	74 1d                	je     100f10 <fileclose+0x50>
    release(&ftable.lock);
  100ef3:	c7 45 08 60 90 10 00 	movl   $0x109060,0x8(%ebp)
  
  if(ff.type == FD_PIPE)
    pipeclose(ff.pipe, ff.writable);
  else if(ff.type == FD_INODE)
    iput(ff.ip);
}
  100efa:	8b 5d f4             	mov    -0xc(%ebp),%ebx
  100efd:	8b 75 f8             	mov    -0x8(%ebp),%esi
  100f00:	8b 7d fc             	mov    -0x4(%ebp),%edi
  100f03:	89 ec                	mov    %ebp,%esp
  100f05:	5d                   	pop    %ebp

  acquire(&ftable.lock);
  if(f->ref < 1)
    panic("fileclose");
  if(--f->ref > 0){
    release(&ftable.lock);
  100f06:	e9 c5 2a 00 00       	jmp    1039d0 <release>
  100f0b:	90                   	nop    
  100f0c:	8d 74 26 00          	lea    0x0(%esi),%esi
    return;
  }
  ff = *f;
  100f10:	8b 43 10             	mov    0x10(%ebx),%eax
  100f13:	89 45 ec             	mov    %eax,-0x14(%ebp)
  100f16:	8b 53 0c             	mov    0xc(%ebx),%edx
  100f19:	89 55 f0             	mov    %edx,-0x10(%ebp)
  100f1c:	8b 33                	mov    (%ebx),%esi
  100f1e:	0f b6 7b 09          	movzbl 0x9(%ebx),%edi
  f->ref = 0;
  100f22:	c7 43 04 00 00 00 00 	movl   $0x0,0x4(%ebx)
  f->type = FD_NONE;
  100f29:	c7 03 00 00 00 00    	movl   $0x0,(%ebx)
  release(&ftable.lock);
  100f2f:	c7 04 24 60 90 10 00 	movl   $0x109060,(%esp)
  100f36:	e8 95 2a 00 00       	call   1039d0 <release>
  
  if(ff.type == FD_PIPE)
  100f3b:	83 fe 01             	cmp    $0x1,%esi
  100f3e:	74 12                	je     100f52 <fileclose+0x92>
    pipeclose(ff.pipe, ff.writable);
  else if(ff.type == FD_INODE)
  100f40:	83 fe 02             	cmp    $0x2,%esi
  100f43:	74 23                	je     100f68 <fileclose+0xa8>
    iput(ff.ip);
}
  100f45:	8b 5d f4             	mov    -0xc(%ebp),%ebx
  100f48:	8b 75 f8             	mov    -0x8(%ebp),%esi
  100f4b:	8b 7d fc             	mov    -0x4(%ebp),%edi
  100f4e:	89 ec                	mov    %ebp,%esp
  100f50:	5d                   	pop    %ebp
  100f51:	c3                   	ret    
  f->ref = 0;
  f->type = FD_NONE;
  release(&ftable.lock);
  
  if(ff.type == FD_PIPE)
    pipeclose(ff.pipe, ff.writable);
  100f52:	89 fa                	mov    %edi,%edx
  100f54:	0f be c2             	movsbl %dl,%eax
  100f57:	89 44 24 04          	mov    %eax,0x4(%esp)
  100f5b:	8b 45 f0             	mov    -0x10(%ebp),%eax
  100f5e:	89 04 24             	mov    %eax,(%esp)
  100f61:	e8 4a 1e 00 00       	call   102db0 <pipeclose>
  100f66:	eb dd                	jmp    100f45 <fileclose+0x85>
  else if(ff.type == FD_INODE)
    iput(ff.ip);
  100f68:	8b 55 ec             	mov    -0x14(%ebp),%edx
}
  100f6b:	8b 5d f4             	mov    -0xc(%ebp),%ebx
  100f6e:	8b 75 f8             	mov    -0x8(%ebp),%esi
  100f71:	8b 7d fc             	mov    -0x4(%ebp),%edi
  release(&ftable.lock);
  
  if(ff.type == FD_PIPE)
    pipeclose(ff.pipe, ff.writable);
  else if(ff.type == FD_INODE)
    iput(ff.ip);
  100f74:	89 55 08             	mov    %edx,0x8(%ebp)
}
  100f77:	89 ec                	mov    %ebp,%esp
  100f79:	5d                   	pop    %ebp
  release(&ftable.lock);
  
  if(ff.type == FD_PIPE)
    pipeclose(ff.pipe, ff.writable);
  else if(ff.type == FD_INODE)
    iput(ff.ip);
  100f7a:	e9 f1 08 00 00       	jmp    101870 <iput>
{
  struct file ff;

  acquire(&ftable.lock);
  if(f->ref < 1)
    panic("fileclose");
  100f7f:	c7 04 24 1a 62 10 00 	movl   $0x10621a,(%esp)
  100f86:	e8 f5 f8 ff ff       	call   100880 <panic>
  100f8b:	90                   	nop    
  100f8c:	8d 74 26 00          	lea    0x0(%esi),%esi

00100f90 <fileinit>:
  struct file file[NFILE];
} ftable;

void
fileinit(void)
{
  100f90:	55                   	push   %ebp
  100f91:	89 e5                	mov    %esp,%ebp
  100f93:	83 ec 08             	sub    $0x8,%esp
  initlock(&ftable.lock, "ftable");
  100f96:	c7 44 24 04 24 62 10 	movl   $0x106224,0x4(%esp)
  100f9d:	00 
  100f9e:	c7 04 24 60 90 10 00 	movl   $0x109060,(%esp)
  100fa5:	e8 e6 28 00 00       	call   103890 <initlock>
}
  100faa:	c9                   	leave  
  100fab:	c3                   	ret    
  100fac:	90                   	nop    
  100fad:	90                   	nop    
  100fae:	90                   	nop    
  100faf:	90                   	nop    

00100fb0 <stati>:
}

// Copy stat information from inode.
void
stati(struct inode *ip, struct stat *st)
{
  100fb0:	55                   	push   %ebp
  100fb1:	89 e5                	mov    %esp,%ebp
  100fb3:	8b 55 08             	mov    0x8(%ebp),%edx
  100fb6:	8b 4d 0c             	mov    0xc(%ebp),%ecx
  st->dev = ip->dev;
  100fb9:	8b 02                	mov    (%edx),%eax
  100fbb:	89 41 04             	mov    %eax,0x4(%ecx)
  st->ino = ip->inum;
  100fbe:	8b 42 04             	mov    0x4(%edx),%eax
  100fc1:	89 41 08             	mov    %eax,0x8(%ecx)
  st->type = ip->type;
  100fc4:	0f b7 42 10          	movzwl 0x10(%edx),%eax
  100fc8:	66 89 01             	mov    %ax,(%ecx)
  st->nlink = ip->nlink;
  100fcb:	0f b7 42 16          	movzwl 0x16(%edx),%eax
  100fcf:	66 89 41 0c          	mov    %ax,0xc(%ecx)
  st->size = ip->size;
  100fd3:	8b 42 18             	mov    0x18(%edx),%eax
  100fd6:	89 41 10             	mov    %eax,0x10(%ecx)
}
  100fd9:	5d                   	pop    %ebp
  100fda:	c3                   	ret    
  100fdb:	90                   	nop    
  100fdc:	8d 74 26 00          	lea    0x0(%esi),%esi

00100fe0 <idup>:

// Increment reference count for ip.
// Returns ip to enable ip = idup(ip1) idiom.
struct inode*
idup(struct inode *ip)
{
  100fe0:	55                   	push   %ebp
  100fe1:	89 e5                	mov    %esp,%ebp
  100fe3:	53                   	push   %ebx
  100fe4:	83 ec 04             	sub    $0x4,%esp
  100fe7:	8b 5d 08             	mov    0x8(%ebp),%ebx
  acquire(&icache.lock);
  100fea:	c7 04 24 60 9a 10 00 	movl   $0x109a60,(%esp)
  100ff1:	e8 1a 2a 00 00       	call   103a10 <acquire>
  ip->ref++;
  100ff6:	83 43 08 01          	addl   $0x1,0x8(%ebx)
  release(&icache.lock);
  100ffa:	c7 04 24 60 9a 10 00 	movl   $0x109a60,(%esp)
  101001:	e8 ca 29 00 00       	call   1039d0 <release>
  return ip;
}
  101006:	89 d8                	mov    %ebx,%eax
  101008:	83 c4 04             	add    $0x4,%esp
  10100b:	5b                   	pop    %ebx
  10100c:	5d                   	pop    %ebp
  10100d:	c3                   	ret    
  10100e:	66 90                	xchg   %ax,%ax

00101010 <iget>:

// Find the inode with number inum on device dev
// and return the in-memory copy.
static struct inode*
iget(uint dev, uint inum)
{
  101010:	55                   	push   %ebp
  101011:	89 e5                	mov    %esp,%ebp
  101013:	57                   	push   %edi
  101014:	89 c7                	mov    %eax,%edi
  101016:	56                   	push   %esi
  struct inode *ip, *empty;

  acquire(&icache.lock);
  101017:	31 f6                	xor    %esi,%esi

// Find the inode with number inum on device dev
// and return the in-memory copy.
static struct inode*
iget(uint dev, uint inum)
{
  101019:	53                   	push   %ebx
  struct inode *ip, *empty;

  acquire(&icache.lock);
  10101a:	bb 94 9a 10 00       	mov    $0x109a94,%ebx

// Find the inode with number inum on device dev
// and return the in-memory copy.
static struct inode*
iget(uint dev, uint inum)
{
  10101f:	83 ec 0c             	sub    $0xc,%esp
  101022:	89 55 f0             	mov    %edx,-0x10(%ebp)
  struct inode *ip, *empty;

  acquire(&icache.lock);
  101025:	c7 04 24 60 9a 10 00 	movl   $0x109a60,(%esp)
  10102c:	e8 df 29 00 00       	call   103a10 <acquire>
  101031:	eb 0f                	jmp    101042 <iget+0x32>
    if(ip->ref > 0 && ip->dev == dev && ip->inum == inum){
      ip->ref++;
      release(&icache.lock);
      return ip;
    }
    if(empty == 0 && ip->ref == 0)    // Remember empty slot.
  101033:	85 f6                	test   %esi,%esi
  101035:	74 3a                	je     101071 <iget+0x61>

  acquire(&icache.lock);

  // Try for cached inode.
  empty = 0;
  for(ip = &icache.inode[0]; ip < &icache.inode[NINODE]; ip++){
  101037:	83 c3 50             	add    $0x50,%ebx
  10103a:	81 fb 34 aa 10 00    	cmp    $0x10aa34,%ebx
  101040:	74 40                	je     101082 <iget+0x72>
    if(ip->ref > 0 && ip->dev == dev && ip->inum == inum){
  101042:	8b 43 08             	mov    0x8(%ebx),%eax
  101045:	85 c0                	test   %eax,%eax
  101047:	7e ea                	jle    101033 <iget+0x23>
  101049:	39 3b                	cmp    %edi,(%ebx)
  10104b:	75 e6                	jne    101033 <iget+0x23>
  10104d:	8b 55 f0             	mov    -0x10(%ebp),%edx
  101050:	39 53 04             	cmp    %edx,0x4(%ebx)
  101053:	75 de                	jne    101033 <iget+0x23>
      ip->ref++;
  101055:	83 c0 01             	add    $0x1,%eax
  101058:	89 43 08             	mov    %eax,0x8(%ebx)
      release(&icache.lock);
  10105b:	c7 04 24 60 9a 10 00 	movl   $0x109a60,(%esp)
  101062:	e8 69 29 00 00       	call   1039d0 <release>
  ip->ref = 1;
  ip->flags = 0;
  release(&icache.lock);

  return ip;
}
  101067:	83 c4 0c             	add    $0xc,%esp
  10106a:	89 d8                	mov    %ebx,%eax
  10106c:	5b                   	pop    %ebx
  10106d:	5e                   	pop    %esi
  10106e:	5f                   	pop    %edi
  10106f:	5d                   	pop    %ebp
  101070:	c3                   	ret    
    if(ip->ref > 0 && ip->dev == dev && ip->inum == inum){
      ip->ref++;
      release(&icache.lock);
      return ip;
    }
    if(empty == 0 && ip->ref == 0)    // Remember empty slot.
  101071:	85 c0                	test   %eax,%eax
  101073:	75 c2                	jne    101037 <iget+0x27>
  101075:	89 de                	mov    %ebx,%esi

  acquire(&icache.lock);

  // Try for cached inode.
  empty = 0;
  for(ip = &icache.inode[0]; ip < &icache.inode[NINODE]; ip++){
  101077:	83 c3 50             	add    $0x50,%ebx
  10107a:	81 fb 34 aa 10 00    	cmp    $0x10aa34,%ebx
  101080:	75 c0                	jne    101042 <iget+0x32>
    if(empty == 0 && ip->ref == 0)    // Remember empty slot.
      empty = ip;
  }

  // Allocate fresh inode.
  if(empty == 0)
  101082:	85 f6                	test   %esi,%esi
  101084:	74 2e                	je     1010b4 <iget+0xa4>
    panic("iget: no inodes");

  ip = empty;
  ip->dev = dev;
  101086:	89 3e                	mov    %edi,(%esi)
  ip->inum = inum;
  101088:	8b 45 f0             	mov    -0x10(%ebp),%eax
  ip->ref = 1;
  ip->flags = 0;
  release(&icache.lock);
  10108b:	89 f3                	mov    %esi,%ebx
    panic("iget: no inodes");

  ip = empty;
  ip->dev = dev;
  ip->inum = inum;
  ip->ref = 1;
  10108d:	c7 46 08 01 00 00 00 	movl   $0x1,0x8(%esi)
  ip->flags = 0;
  101094:	c7 46 0c 00 00 00 00 	movl   $0x0,0xc(%esi)
  if(empty == 0)
    panic("iget: no inodes");

  ip = empty;
  ip->dev = dev;
  ip->inum = inum;
  10109b:	89 46 04             	mov    %eax,0x4(%esi)
  ip->ref = 1;
  ip->flags = 0;
  release(&icache.lock);
  10109e:	c7 04 24 60 9a 10 00 	movl   $0x109a60,(%esp)
  1010a5:	e8 26 29 00 00       	call   1039d0 <release>

  return ip;
}
  1010aa:	83 c4 0c             	add    $0xc,%esp
  1010ad:	89 d8                	mov    %ebx,%eax
  1010af:	5b                   	pop    %ebx
  1010b0:	5e                   	pop    %esi
  1010b1:	5f                   	pop    %edi
  1010b2:	5d                   	pop    %ebp
  1010b3:	c3                   	ret    
      empty = ip;
  }

  // Allocate fresh inode.
  if(empty == 0)
    panic("iget: no inodes");
  1010b4:	c7 04 24 2b 62 10 00 	movl   $0x10622b,(%esp)
  1010bb:	e8 c0 f7 ff ff       	call   100880 <panic>

001010c0 <readsb>:
static void itrunc(struct inode*);

// Read the super block.
static void
readsb(int dev, struct superblock *sb)
{
  1010c0:	55                   	push   %ebp
  1010c1:	89 e5                	mov    %esp,%ebp
  1010c3:	83 ec 18             	sub    $0x18,%esp
  struct buf *bp;
  
  bp = bread(dev, 1);
  1010c6:	c7 44 24 04 01 00 00 	movl   $0x1,0x4(%esp)
  1010cd:	00 
static void itrunc(struct inode*);

// Read the super block.
static void
readsb(int dev, struct superblock *sb)
{
  1010ce:	89 5d f8             	mov    %ebx,-0x8(%ebp)
  1010d1:	89 75 fc             	mov    %esi,-0x4(%ebp)
  1010d4:	89 d6                	mov    %edx,%esi
  struct buf *bp;
  
  bp = bread(dev, 1);
  1010d6:	89 04 24             	mov    %eax,(%esp)
  1010d9:	e8 c2 ef ff ff       	call   1000a0 <bread>
  memmove(sb, bp->data, sizeof(*sb));
  1010de:	89 34 24             	mov    %esi,(%esp)
  1010e1:	c7 44 24 08 0c 00 00 	movl   $0xc,0x8(%esp)
  1010e8:	00 
static void
readsb(int dev, struct superblock *sb)
{
  struct buf *bp;
  
  bp = bread(dev, 1);
  1010e9:	89 c3                	mov    %eax,%ebx
  memmove(sb, bp->data, sizeof(*sb));
  1010eb:	8d 40 18             	lea    0x18(%eax),%eax
  1010ee:	89 44 24 04          	mov    %eax,0x4(%esp)
  1010f2:	e8 29 2a 00 00       	call   103b20 <memmove>
  brelse(bp);
  1010f7:	89 1c 24             	mov    %ebx,(%esp)
  1010fa:	e8 01 ef ff ff       	call   100000 <brelse>
}
  1010ff:	8b 5d f8             	mov    -0x8(%ebp),%ebx
  101102:	8b 75 fc             	mov    -0x4(%ebp),%esi
  101105:	89 ec                	mov    %ebp,%esp
  101107:	5d                   	pop    %ebp
  101108:	c3                   	ret    
  101109:	8d b4 26 00 00 00 00 	lea    0x0(%esi),%esi

00101110 <iupdate>:
}

// Copy inode, which has changed, from memory to disk.
void
iupdate(struct inode *ip)
{
  101110:	55                   	push   %ebp
  101111:	89 e5                	mov    %esp,%ebp
  101113:	56                   	push   %esi
  101114:	53                   	push   %ebx
  101115:	83 ec 10             	sub    $0x10,%esp
  101118:	8b 5d 08             	mov    0x8(%ebp),%ebx
  struct buf *bp;
  struct dinode *dip;

  bp = bread(ip->dev, IBLOCK(ip->inum));
  10111b:	8b 43 04             	mov    0x4(%ebx),%eax
  10111e:	c1 e8 03             	shr    $0x3,%eax
  101121:	83 c0 02             	add    $0x2,%eax
  101124:	89 44 24 04          	mov    %eax,0x4(%esp)
  101128:	8b 03                	mov    (%ebx),%eax
  10112a:	89 04 24             	mov    %eax,(%esp)
  10112d:	e8 6e ef ff ff       	call   1000a0 <bread>
  101132:	89 c6                	mov    %eax,%esi
  dip = (struct dinode*)bp->data + ip->inum%IPB;
  101134:	8b 43 04             	mov    0x4(%ebx),%eax
  101137:	83 e0 07             	and    $0x7,%eax
  10113a:	c1 e0 06             	shl    $0x6,%eax
  10113d:	8d 54 06 18          	lea    0x18(%esi,%eax,1),%edx
  dip->type = ip->type;
  101141:	0f b7 43 10          	movzwl 0x10(%ebx),%eax
  101145:	66 89 02             	mov    %ax,(%edx)
  dip->major = ip->major;
  101148:	0f b7 43 12          	movzwl 0x12(%ebx),%eax
  10114c:	66 89 42 02          	mov    %ax,0x2(%edx)
  dip->minor = ip->minor;
  101150:	0f b7 43 14          	movzwl 0x14(%ebx),%eax
  101154:	66 89 42 04          	mov    %ax,0x4(%edx)
  dip->nlink = ip->nlink;
  101158:	0f b7 43 16          	movzwl 0x16(%ebx),%eax
  10115c:	66 89 42 06          	mov    %ax,0x6(%edx)
  dip->size = ip->size;
  101160:	8b 43 18             	mov    0x18(%ebx),%eax
  memmove(dip->addrs, ip->addrs, sizeof(ip->addrs));
  101163:	83 c3 1c             	add    $0x1c,%ebx
  dip = (struct dinode*)bp->data + ip->inum%IPB;
  dip->type = ip->type;
  dip->major = ip->major;
  dip->minor = ip->minor;
  dip->nlink = ip->nlink;
  dip->size = ip->size;
  101166:	89 42 08             	mov    %eax,0x8(%edx)
  memmove(dip->addrs, ip->addrs, sizeof(ip->addrs));
  101169:	83 c2 0c             	add    $0xc,%edx
  10116c:	89 5c 24 04          	mov    %ebx,0x4(%esp)
  101170:	89 14 24             	mov    %edx,(%esp)
  101173:	c7 44 24 08 34 00 00 	movl   $0x34,0x8(%esp)
  10117a:	00 
  10117b:	e8 a0 29 00 00       	call   103b20 <memmove>
  bwrite(bp);
  101180:	89 34 24             	mov    %esi,(%esp)
  101183:	e8 e8 ee ff ff       	call   100070 <bwrite>
  brelse(bp);
  101188:	89 75 08             	mov    %esi,0x8(%ebp)
}
  10118b:	83 c4 10             	add    $0x10,%esp
  10118e:	5b                   	pop    %ebx
  10118f:	5e                   	pop    %esi
  101190:	5d                   	pop    %ebp
  dip->minor = ip->minor;
  dip->nlink = ip->nlink;
  dip->size = ip->size;
  memmove(dip->addrs, ip->addrs, sizeof(ip->addrs));
  bwrite(bp);
  brelse(bp);
  101191:	e9 6a ee ff ff       	jmp    100000 <brelse>
  101196:	8d 76 00             	lea    0x0(%esi),%esi
  101199:	8d bc 27 00 00 00 00 	lea    0x0(%edi),%edi

001011a0 <balloc>:
// Blocks. 

// Allocate a disk block.
static uint
balloc(uint dev)
{
  1011a0:	55                   	push   %ebp
  1011a1:	89 e5                	mov    %esp,%ebp
  1011a3:	57                   	push   %edi
  1011a4:	56                   	push   %esi
  1011a5:	53                   	push   %ebx
  1011a6:	83 ec 2c             	sub    $0x2c,%esp
  int b, bi, m;
  struct buf *bp;
  struct superblock sb;

  bp = 0;
  readsb(dev, &sb);
  1011a9:	8d 55 e8             	lea    -0x18(%ebp),%edx
// Blocks. 

// Allocate a disk block.
static uint
balloc(uint dev)
{
  1011ac:	89 45 dc             	mov    %eax,-0x24(%ebp)
  int b, bi, m;
  struct buf *bp;
  struct superblock sb;

  bp = 0;
  readsb(dev, &sb);
  1011af:	e8 0c ff ff ff       	call   1010c0 <readsb>
  for(b = 0; b < sb.size; b += BPB){
  1011b4:	8b 45 e8             	mov    -0x18(%ebp),%eax
  1011b7:	85 c0                	test   %eax,%eax
  1011b9:	0f 84 a6 00 00 00    	je     101265 <balloc+0xc5>
  1011bf:	c7 45 e0 00 00 00 00 	movl   $0x0,-0x20(%ebp)
    bp = bread(dev, BBLOCK(b, sb.ninodes));
  1011c6:	8b 45 e0             	mov    -0x20(%ebp),%eax
  1011c9:	31 f6                	xor    %esi,%esi
  1011cb:	8b 55 f0             	mov    -0x10(%ebp),%edx
  1011ce:	c1 f8 1f             	sar    $0x1f,%eax
  1011d1:	c1 e8 14             	shr    $0x14,%eax
  1011d4:	03 45 e0             	add    -0x20(%ebp),%eax
  1011d7:	c1 ea 03             	shr    $0x3,%edx
  1011da:	c1 f8 0c             	sar    $0xc,%eax
  1011dd:	8d 54 02 03          	lea    0x3(%edx,%eax,1),%edx
  1011e1:	8b 45 dc             	mov    -0x24(%ebp),%eax
  1011e4:	89 54 24 04          	mov    %edx,0x4(%esp)
  1011e8:	89 04 24             	mov    %eax,(%esp)
  1011eb:	e8 b0 ee ff ff       	call   1000a0 <bread>
  1011f0:	89 c7                	mov    %eax,%edi
  1011f2:	eb 0b                	jmp    1011ff <balloc+0x5f>
    for(bi = 0; bi < BPB; bi++){
  1011f4:	83 c6 01             	add    $0x1,%esi
  1011f7:	81 fe 00 10 00 00    	cmp    $0x1000,%esi
  1011fd:	74 4b                	je     10124a <balloc+0xaa>
      m = 1 << (bi % 8);
  1011ff:	89 f0                	mov    %esi,%eax
  101201:	bb 01 00 00 00       	mov    $0x1,%ebx
  101206:	c1 f8 1f             	sar    $0x1f,%eax
  101209:	c1 e8 1d             	shr    $0x1d,%eax
  10120c:	8d 14 06             	lea    (%esi,%eax,1),%edx
  10120f:	89 d1                	mov    %edx,%ecx
  101211:	83 e1 07             	and    $0x7,%ecx
  101214:	29 c1                	sub    %eax,%ecx
      if((bp->data[bi/8] & m) == 0){  // Is block free?
  101216:	c1 fa 03             	sar    $0x3,%edx
  bp = 0;
  readsb(dev, &sb);
  for(b = 0; b < sb.size; b += BPB){
    bp = bread(dev, BBLOCK(b, sb.ninodes));
    for(bi = 0; bi < BPB; bi++){
      m = 1 << (bi % 8);
  101219:	d3 e3                	shl    %cl,%ebx
      if((bp->data[bi/8] & m) == 0){  // Is block free?
  10121b:	0f b6 4c 17 18       	movzbl 0x18(%edi,%edx,1),%ecx
  101220:	0f b6 c1             	movzbl %cl,%eax
  101223:	85 d8                	test   %ebx,%eax
  101225:	75 cd                	jne    1011f4 <balloc+0x54>
        bp->data[bi/8] |= m;  // Mark block in use on disk.
  101227:	09 d9                	or     %ebx,%ecx
  101229:	88 4c 17 18          	mov    %cl,0x18(%edi,%edx,1)
        bwrite(bp);
  10122d:	89 3c 24             	mov    %edi,(%esp)
  101230:	e8 3b ee ff ff       	call   100070 <bwrite>
        brelse(bp);
  101235:	89 3c 24             	mov    %edi,(%esp)
  101238:	e8 c3 ed ff ff       	call   100000 <brelse>
  10123d:	8b 45 e0             	mov    -0x20(%ebp),%eax
      }
    }
    brelse(bp);
  }
  panic("balloc: out of blocks");
}
  101240:	83 c4 2c             	add    $0x2c,%esp
  101243:	5b                   	pop    %ebx
    for(bi = 0; bi < BPB; bi++){
      m = 1 << (bi % 8);
      if((bp->data[bi/8] & m) == 0){  // Is block free?
        bp->data[bi/8] |= m;  // Mark block in use on disk.
        bwrite(bp);
        brelse(bp);
  101244:	01 f0                	add    %esi,%eax
      }
    }
    brelse(bp);
  }
  panic("balloc: out of blocks");
}
  101246:	5e                   	pop    %esi
  101247:	5f                   	pop    %edi
  101248:	5d                   	pop    %ebp
  101249:	c3                   	ret    
        bwrite(bp);
        brelse(bp);
        return b + bi;
      }
    }
    brelse(bp);
  10124a:	89 3c 24             	mov    %edi,(%esp)
  10124d:	e8 ae ed ff ff       	call   100000 <brelse>
  struct buf *bp;
  struct superblock sb;

  bp = 0;
  readsb(dev, &sb);
  for(b = 0; b < sb.size; b += BPB){
  101252:	81 45 e0 00 10 00 00 	addl   $0x1000,-0x20(%ebp)
  101259:	8b 45 e0             	mov    -0x20(%ebp),%eax
  10125c:	39 45 e8             	cmp    %eax,-0x18(%ebp)
  10125f:	0f 87 61 ff ff ff    	ja     1011c6 <balloc+0x26>
        return b + bi;
      }
    }
    brelse(bp);
  }
  panic("balloc: out of blocks");
  101265:	c7 04 24 3b 62 10 00 	movl   $0x10623b,(%esp)
  10126c:	e8 0f f6 ff ff       	call   100880 <panic>
  101271:	eb 0d                	jmp    101280 <bmap>
  101273:	90                   	nop    
  101274:	90                   	nop    
  101275:	90                   	nop    
  101276:	90                   	nop    
  101277:	90                   	nop    
  101278:	90                   	nop    
  101279:	90                   	nop    
  10127a:	90                   	nop    
  10127b:	90                   	nop    
  10127c:	90                   	nop    
  10127d:	90                   	nop    
  10127e:	90                   	nop    
  10127f:	90                   	nop    

00101280 <bmap>:

// Return the disk block address of the nth block in inode ip.
// If there is no such block, bmap allocates one.
static uint
bmap(struct inode *ip, uint bn)
{
  101280:	55                   	push   %ebp
  101281:	89 e5                	mov    %esp,%ebp
  101283:	83 ec 18             	sub    $0x18,%esp
  uint addr, *a;
  struct buf *bp;

  if(bn < NDIRECT){
  101286:	83 fa 0b             	cmp    $0xb,%edx

// Return the disk block address of the nth block in inode ip.
// If there is no such block, bmap allocates one.
static uint
bmap(struct inode *ip, uint bn)
{
  101289:	89 75 f8             	mov    %esi,-0x8(%ebp)
  10128c:	89 d6                	mov    %edx,%esi
  10128e:	89 7d fc             	mov    %edi,-0x4(%ebp)
  101291:	89 c7                	mov    %eax,%edi
  101293:	89 5d f4             	mov    %ebx,-0xc(%ebp)
  uint addr, *a;
  struct buf *bp;

  if(bn < NDIRECT){
  101296:	77 18                	ja     1012b0 <bmap+0x30>
    if((addr = ip->addrs[bn]) == 0)
  101298:	8b 5c 90 1c          	mov    0x1c(%eax,%edx,4),%ebx
  10129c:	85 db                	test   %ebx,%ebx
  10129e:	74 46                	je     1012e6 <bmap+0x66>
    brelse(bp);
    return addr;
  }

  panic("bmap: out of range");
}
  1012a0:	89 d8                	mov    %ebx,%eax
  1012a2:	8b 75 f8             	mov    -0x8(%ebp),%esi
  1012a5:	8b 5d f4             	mov    -0xc(%ebp),%ebx
  1012a8:	8b 7d fc             	mov    -0x4(%ebp),%edi
  1012ab:	89 ec                	mov    %ebp,%esp
  1012ad:	5d                   	pop    %ebp
  1012ae:	c3                   	ret    
  1012af:	90                   	nop    
  if(bn < NDIRECT){
    if((addr = ip->addrs[bn]) == 0)
      ip->addrs[bn] = addr = balloc(ip->dev);
    return addr;
  }
  bn -= NDIRECT;
  1012b0:	8d 5a f4             	lea    -0xc(%edx),%ebx

  if(bn < NINDIRECT){
  1012b3:	83 fb 7f             	cmp    $0x7f,%ebx
  1012b6:	77 64                	ja     10131c <bmap+0x9c>
    // Load indirect block, allocating if necessary.
    if((addr = ip->addrs[NDIRECT]) == 0)
  1012b8:	8b 40 4c             	mov    0x4c(%eax),%eax
  1012bb:	85 c0                	test   %eax,%eax
  1012bd:	74 51                	je     101310 <bmap+0x90>
      ip->addrs[NDIRECT] = addr = balloc(ip->dev);
    bp = bread(ip->dev, addr);
  1012bf:	89 44 24 04          	mov    %eax,0x4(%esp)
  1012c3:	8b 07                	mov    (%edi),%eax
  1012c5:	89 04 24             	mov    %eax,(%esp)
  1012c8:	e8 d3 ed ff ff       	call   1000a0 <bread>
    a = (uint*)bp->data;
    if((addr = a[bn]) == 0){
  1012cd:	8d 5c 98 18          	lea    0x18(%eax,%ebx,4),%ebx

  if(bn < NINDIRECT){
    // Load indirect block, allocating if necessary.
    if((addr = ip->addrs[NDIRECT]) == 0)
      ip->addrs[NDIRECT] = addr = balloc(ip->dev);
    bp = bread(ip->dev, addr);
  1012d1:	89 c6                	mov    %eax,%esi
    a = (uint*)bp->data;
    if((addr = a[bn]) == 0){
  1012d3:	89 5d f0             	mov    %ebx,-0x10(%ebp)
  1012d6:	8b 1b                	mov    (%ebx),%ebx
  1012d8:	85 db                	test   %ebx,%ebx
  1012da:	74 19                	je     1012f5 <bmap+0x75>
      a[bn] = addr = balloc(ip->dev);
      bwrite(bp);
    }
    brelse(bp);
  1012dc:	89 34 24             	mov    %esi,(%esp)
  1012df:	e8 1c ed ff ff       	call   100000 <brelse>
  1012e4:	eb ba                	jmp    1012a0 <bmap+0x20>
  uint addr, *a;
  struct buf *bp;

  if(bn < NDIRECT){
    if((addr = ip->addrs[bn]) == 0)
      ip->addrs[bn] = addr = balloc(ip->dev);
  1012e6:	8b 00                	mov    (%eax),%eax
  1012e8:	e8 b3 fe ff ff       	call   1011a0 <balloc>
  1012ed:	89 c3                	mov    %eax,%ebx
  1012ef:	89 44 b7 1c          	mov    %eax,0x1c(%edi,%esi,4)
  1012f3:	eb ab                	jmp    1012a0 <bmap+0x20>
    if((addr = ip->addrs[NDIRECT]) == 0)
      ip->addrs[NDIRECT] = addr = balloc(ip->dev);
    bp = bread(ip->dev, addr);
    a = (uint*)bp->data;
    if((addr = a[bn]) == 0){
      a[bn] = addr = balloc(ip->dev);
  1012f5:	8b 07                	mov    (%edi),%eax
  1012f7:	e8 a4 fe ff ff       	call   1011a0 <balloc>
  1012fc:	89 c3                	mov    %eax,%ebx
  1012fe:	8b 45 f0             	mov    -0x10(%ebp),%eax
  101301:	89 18                	mov    %ebx,(%eax)
      bwrite(bp);
  101303:	89 34 24             	mov    %esi,(%esp)
  101306:	e8 65 ed ff ff       	call   100070 <bwrite>
  10130b:	eb cf                	jmp    1012dc <bmap+0x5c>
  10130d:	8d 76 00             	lea    0x0(%esi),%esi
  bn -= NDIRECT;

  if(bn < NINDIRECT){
    // Load indirect block, allocating if necessary.
    if((addr = ip->addrs[NDIRECT]) == 0)
      ip->addrs[NDIRECT] = addr = balloc(ip->dev);
  101310:	8b 07                	mov    (%edi),%eax
  101312:	e8 89 fe ff ff       	call   1011a0 <balloc>
  101317:	89 47 4c             	mov    %eax,0x4c(%edi)
  10131a:	eb a3                	jmp    1012bf <bmap+0x3f>
    }
    brelse(bp);
    return addr;
  }

  panic("bmap: out of range");
  10131c:	c7 04 24 51 62 10 00 	movl   $0x106251,(%esp)
  101323:	e8 58 f5 ff ff       	call   100880 <panic>
  101328:	90                   	nop    
  101329:	8d b4 26 00 00 00 00 	lea    0x0(%esi),%esi

00101330 <writei>:
}

// Write data to inode.
int
writei(struct inode *ip, char *src, uint off, uint n)
{
  101330:	55                   	push   %ebp
  101331:	89 e5                	mov    %esp,%ebp
  101333:	83 ec 28             	sub    $0x28,%esp
  101336:	89 5d f4             	mov    %ebx,-0xc(%ebp)
  101339:	8b 45 0c             	mov    0xc(%ebp),%eax
  10133c:	8b 5d 08             	mov    0x8(%ebp),%ebx
  10133f:	8b 4d 14             	mov    0x14(%ebp),%ecx
  101342:	89 75 f8             	mov    %esi,-0x8(%ebp)
  101345:	8b 75 10             	mov    0x10(%ebp),%esi
  101348:	89 7d fc             	mov    %edi,-0x4(%ebp)
  10134b:	89 45 e8             	mov    %eax,-0x18(%ebp)
  10134e:	89 4d e4             	mov    %ecx,-0x1c(%ebp)
  uint tot, m;
  struct buf *bp;

  if(ip->type == T_DEV){
  101351:	66 83 7b 10 03       	cmpw   $0x3,0x10(%ebx)
  101356:	74 18                	je     101370 <writei+0x40>
    if(ip->major < 0 || ip->major >= NDEV || !devsw[ip->major].write)
      return -1;
    return devsw[ip->major].write(ip, src, n);
  }

  if(off > ip->size || off + n < off)
  101358:	39 73 18             	cmp    %esi,0x18(%ebx)
  10135b:	73 3d                	jae    10139a <writei+0x6a>

  if(n > 0 && off > ip->size){
    ip->size = off;
    iupdate(ip);
  }
  return n;
  10135d:	b8 ff ff ff ff       	mov    $0xffffffff,%eax
}
  101362:	8b 5d f4             	mov    -0xc(%ebp),%ebx
  101365:	8b 75 f8             	mov    -0x8(%ebp),%esi
  101368:	8b 7d fc             	mov    -0x4(%ebp),%edi
  10136b:	89 ec                	mov    %ebp,%esp
  10136d:	5d                   	pop    %ebp
  10136e:	c3                   	ret    
  10136f:	90                   	nop    
{
  uint tot, m;
  struct buf *bp;

  if(ip->type == T_DEV){
    if(ip->major < 0 || ip->major >= NDEV || !devsw[ip->major].write)
  101370:	0f b7 43 12          	movzwl 0x12(%ebx),%eax
  101374:	66 83 f8 09          	cmp    $0x9,%ax
  101378:	77 e3                	ja     10135d <writei+0x2d>
  10137a:	98                   	cwtl   
  10137b:	8b 0c c5 04 9a 10 00 	mov    0x109a04(,%eax,8),%ecx
  101382:	85 c9                	test   %ecx,%ecx
  101384:	74 d7                	je     10135d <writei+0x2d>
      return -1;
    return devsw[ip->major].write(ip, src, n);
  101386:	8b 45 e4             	mov    -0x1c(%ebp),%eax
  if(n > 0 && off > ip->size){
    ip->size = off;
    iupdate(ip);
  }
  return n;
}
  101389:	8b 5d f4             	mov    -0xc(%ebp),%ebx
  10138c:	8b 75 f8             	mov    -0x8(%ebp),%esi
  10138f:	8b 7d fc             	mov    -0x4(%ebp),%edi
  struct buf *bp;

  if(ip->type == T_DEV){
    if(ip->major < 0 || ip->major >= NDEV || !devsw[ip->major].write)
      return -1;
    return devsw[ip->major].write(ip, src, n);
  101392:	89 45 10             	mov    %eax,0x10(%ebp)
  if(n > 0 && off > ip->size){
    ip->size = off;
    iupdate(ip);
  }
  return n;
}
  101395:	89 ec                	mov    %ebp,%esp
  101397:	5d                   	pop    %ebp
  struct buf *bp;

  if(ip->type == T_DEV){
    if(ip->major < 0 || ip->major >= NDEV || !devsw[ip->major].write)
      return -1;
    return devsw[ip->major].write(ip, src, n);
  101398:	ff e1                	jmp    *%ecx
  }

  if(off > ip->size || off + n < off)
  10139a:	8b 45 e4             	mov    -0x1c(%ebp),%eax
  10139d:	01 f0                	add    %esi,%eax
  10139f:	39 c6                	cmp    %eax,%esi
  1013a1:	77 ba                	ja     10135d <writei+0x2d>
    return -1;
  if(off + n > MAXFILE*BSIZE)
  1013a3:	3d 00 18 01 00       	cmp    $0x11800,%eax
  1013a8:	76 0a                	jbe    1013b4 <writei+0x84>
    n = MAXFILE*BSIZE - off;
  1013aa:	c7 45 e4 00 18 01 00 	movl   $0x11800,-0x1c(%ebp)
  1013b1:	29 75 e4             	sub    %esi,-0x1c(%ebp)

  for(tot=0; tot<n; tot+=m, off+=m, src+=m){
  1013b4:	8b 55 e4             	mov    -0x1c(%ebp),%edx
  1013b7:	85 d2                	test   %edx,%edx
  1013b9:	0f 84 8f 00 00 00    	je     10144e <writei+0x11e>
  1013bf:	c7 45 ec 00 00 00 00 	movl   $0x0,-0x14(%ebp)
    bp = bread(ip->dev, bmap(ip, off/BSIZE));
  1013c6:	89 f2                	mov    %esi,%edx
  1013c8:	89 d8                	mov    %ebx,%eax
  1013ca:	c1 ea 09             	shr    $0x9,%edx
    m = min(n - tot, BSIZE - off%BSIZE);
  1013cd:	bf 00 02 00 00       	mov    $0x200,%edi
    return -1;
  if(off + n > MAXFILE*BSIZE)
    n = MAXFILE*BSIZE - off;

  for(tot=0; tot<n; tot+=m, off+=m, src+=m){
    bp = bread(ip->dev, bmap(ip, off/BSIZE));
  1013d2:	e8 a9 fe ff ff       	call   101280 <bmap>
  1013d7:	89 44 24 04          	mov    %eax,0x4(%esp)
  1013db:	8b 03                	mov    (%ebx),%eax
  1013dd:	89 04 24             	mov    %eax,(%esp)
  1013e0:	e8 bb ec ff ff       	call   1000a0 <bread>
    m = min(n - tot, BSIZE - off%BSIZE);
  1013e5:	89 f2                	mov    %esi,%edx
  1013e7:	81 e2 ff 01 00 00    	and    $0x1ff,%edx
  1013ed:	29 d7                	sub    %edx,%edi
    return -1;
  if(off + n > MAXFILE*BSIZE)
    n = MAXFILE*BSIZE - off;

  for(tot=0; tot<n; tot+=m, off+=m, src+=m){
    bp = bread(ip->dev, bmap(ip, off/BSIZE));
  1013ef:	89 45 f0             	mov    %eax,-0x10(%ebp)
    m = min(n - tot, BSIZE - off%BSIZE);
  1013f2:	8b 45 e4             	mov    -0x1c(%ebp),%eax
  1013f5:	2b 45 ec             	sub    -0x14(%ebp),%eax
  1013f8:	39 c7                	cmp    %eax,%edi
  1013fa:	76 02                	jbe    1013fe <writei+0xce>
  1013fc:	89 c7                	mov    %eax,%edi
    memmove(bp->data + off%BSIZE, src, m);
  1013fe:	89 7c 24 08          	mov    %edi,0x8(%esp)
  101402:	8b 4d e8             	mov    -0x18(%ebp),%ecx
  if(off > ip->size || off + n < off)
    return -1;
  if(off + n > MAXFILE*BSIZE)
    n = MAXFILE*BSIZE - off;

  for(tot=0; tot<n; tot+=m, off+=m, src+=m){
  101405:	01 fe                	add    %edi,%esi
    bp = bread(ip->dev, bmap(ip, off/BSIZE));
    m = min(n - tot, BSIZE - off%BSIZE);
    memmove(bp->data + off%BSIZE, src, m);
  101407:	89 4c 24 04          	mov    %ecx,0x4(%esp)
  10140b:	8b 4d f0             	mov    -0x10(%ebp),%ecx
  10140e:	8d 44 11 18          	lea    0x18(%ecx,%edx,1),%eax
  101412:	89 04 24             	mov    %eax,(%esp)
  101415:	e8 06 27 00 00       	call   103b20 <memmove>
    bwrite(bp);
  10141a:	8b 45 f0             	mov    -0x10(%ebp),%eax
  10141d:	89 04 24             	mov    %eax,(%esp)
  101420:	e8 4b ec ff ff       	call   100070 <bwrite>
    brelse(bp);
  101425:	8b 4d f0             	mov    -0x10(%ebp),%ecx
  101428:	89 0c 24             	mov    %ecx,(%esp)
  10142b:	e8 d0 eb ff ff       	call   100000 <brelse>
  if(off > ip->size || off + n < off)
    return -1;
  if(off + n > MAXFILE*BSIZE)
    n = MAXFILE*BSIZE - off;

  for(tot=0; tot<n; tot+=m, off+=m, src+=m){
  101430:	01 7d ec             	add    %edi,-0x14(%ebp)
  101433:	8b 45 ec             	mov    -0x14(%ebp),%eax
  101436:	01 7d e8             	add    %edi,-0x18(%ebp)
  101439:	39 45 e4             	cmp    %eax,-0x1c(%ebp)
  10143c:	77 88                	ja     1013c6 <writei+0x96>
    memmove(bp->data + off%BSIZE, src, m);
    bwrite(bp);
    brelse(bp);
  }

  if(n > 0 && off > ip->size){
  10143e:	39 73 18             	cmp    %esi,0x18(%ebx)
  101441:	73 0b                	jae    10144e <writei+0x11e>
    ip->size = off;
  101443:	89 73 18             	mov    %esi,0x18(%ebx)
    iupdate(ip);
  101446:	89 1c 24             	mov    %ebx,(%esp)
  101449:	e8 c2 fc ff ff       	call   101110 <iupdate>
  }
  return n;
  10144e:	8b 45 e4             	mov    -0x1c(%ebp),%eax
  101451:	e9 0c ff ff ff       	jmp    101362 <writei+0x32>
  101456:	8d 76 00             	lea    0x0(%esi),%esi
  101459:	8d bc 27 00 00 00 00 	lea    0x0(%edi),%edi

00101460 <readi>:
}

// Read data from inode.
int
readi(struct inode *ip, char *dst, uint off, uint n)
{
  101460:	55                   	push   %ebp
  101461:	89 e5                	mov    %esp,%ebp
  101463:	83 ec 28             	sub    $0x28,%esp
  101466:	89 7d fc             	mov    %edi,-0x4(%ebp)
  101469:	8b 45 0c             	mov    0xc(%ebp),%eax
  10146c:	8b 7d 08             	mov    0x8(%ebp),%edi
  10146f:	8b 4d 14             	mov    0x14(%ebp),%ecx
  101472:	89 5d f4             	mov    %ebx,-0xc(%ebp)
  101475:	8b 5d 10             	mov    0x10(%ebp),%ebx
  101478:	89 75 f8             	mov    %esi,-0x8(%ebp)
  10147b:	89 45 e8             	mov    %eax,-0x18(%ebp)
  10147e:	89 4d e4             	mov    %ecx,-0x1c(%ebp)
  uint tot, m;
  struct buf *bp;

  if(ip->type == T_DEV){
  101481:	66 83 7f 10 03       	cmpw   $0x3,0x10(%edi)
  101486:	74 19                	je     1014a1 <readi+0x41>
    if(ip->major < 0 || ip->major >= NDEV || !devsw[ip->major].read)
      return -1;
    return devsw[ip->major].read(ip, dst, n);
  }

  if(off > ip->size || off + n < off)
  101488:	8b 47 18             	mov    0x18(%edi),%eax
  10148b:	39 d8                	cmp    %ebx,%eax
  10148d:	73 3c                	jae    1014cb <readi+0x6b>
    bp = bread(ip->dev, bmap(ip, off/BSIZE));
    m = min(n - tot, BSIZE - off%BSIZE);
    memmove(dst, bp->data + off%BSIZE, m);
    brelse(bp);
  }
  return n;
  10148f:	b8 ff ff ff ff       	mov    $0xffffffff,%eax
}
  101494:	8b 5d f4             	mov    -0xc(%ebp),%ebx
  101497:	8b 75 f8             	mov    -0x8(%ebp),%esi
  10149a:	8b 7d fc             	mov    -0x4(%ebp),%edi
  10149d:	89 ec                	mov    %ebp,%esp
  10149f:	5d                   	pop    %ebp
  1014a0:	c3                   	ret    
{
  uint tot, m;
  struct buf *bp;

  if(ip->type == T_DEV){
    if(ip->major < 0 || ip->major >= NDEV || !devsw[ip->major].read)
  1014a1:	0f b7 47 12          	movzwl 0x12(%edi),%eax
  1014a5:	66 83 f8 09          	cmp    $0x9,%ax
  1014a9:	77 e4                	ja     10148f <readi+0x2f>
  1014ab:	98                   	cwtl   
  1014ac:	8b 0c c5 00 9a 10 00 	mov    0x109a00(,%eax,8),%ecx
  1014b3:	85 c9                	test   %ecx,%ecx
  1014b5:	74 d8                	je     10148f <readi+0x2f>
      return -1;
    return devsw[ip->major].read(ip, dst, n);
  1014b7:	8b 45 e4             	mov    -0x1c(%ebp),%eax
    m = min(n - tot, BSIZE - off%BSIZE);
    memmove(dst, bp->data + off%BSIZE, m);
    brelse(bp);
  }
  return n;
}
  1014ba:	8b 5d f4             	mov    -0xc(%ebp),%ebx
  1014bd:	8b 75 f8             	mov    -0x8(%ebp),%esi
  1014c0:	8b 7d fc             	mov    -0x4(%ebp),%edi
  struct buf *bp;

  if(ip->type == T_DEV){
    if(ip->major < 0 || ip->major >= NDEV || !devsw[ip->major].read)
      return -1;
    return devsw[ip->major].read(ip, dst, n);
  1014c3:	89 45 10             	mov    %eax,0x10(%ebp)
    m = min(n - tot, BSIZE - off%BSIZE);
    memmove(dst, bp->data + off%BSIZE, m);
    brelse(bp);
  }
  return n;
}
  1014c6:	89 ec                	mov    %ebp,%esp
  1014c8:	5d                   	pop    %ebp
  struct buf *bp;

  if(ip->type == T_DEV){
    if(ip->major < 0 || ip->major >= NDEV || !devsw[ip->major].read)
      return -1;
    return devsw[ip->major].read(ip, dst, n);
  1014c9:	ff e1                	jmp    *%ecx
  }

  if(off > ip->size || off + n < off)
  1014cb:	8b 55 e4             	mov    -0x1c(%ebp),%edx
  1014ce:	01 da                	add    %ebx,%edx
  1014d0:	39 d3                	cmp    %edx,%ebx
  1014d2:	77 bb                	ja     10148f <readi+0x2f>
    return -1;
  if(off + n > ip->size)
  1014d4:	39 d0                	cmp    %edx,%eax
  1014d6:	73 05                	jae    1014dd <readi+0x7d>
    n = ip->size - off;
  1014d8:	29 d8                	sub    %ebx,%eax
  1014da:	89 45 e4             	mov    %eax,-0x1c(%ebp)

  for(tot=0; tot<n; tot+=m, off+=m, dst+=m){
  1014dd:	8b 4d e4             	mov    -0x1c(%ebp),%ecx
  1014e0:	85 c9                	test   %ecx,%ecx
  1014e2:	74 79                	je     10155d <readi+0xfd>
  1014e4:	c7 45 ec 00 00 00 00 	movl   $0x0,-0x14(%ebp)
  1014eb:	90                   	nop    
  1014ec:	8d 74 26 00          	lea    0x0(%esi),%esi
    bp = bread(ip->dev, bmap(ip, off/BSIZE));
  1014f0:	89 da                	mov    %ebx,%edx
  1014f2:	89 f8                	mov    %edi,%eax
  1014f4:	c1 ea 09             	shr    $0x9,%edx
    m = min(n - tot, BSIZE - off%BSIZE);
  1014f7:	be 00 02 00 00       	mov    $0x200,%esi
    return -1;
  if(off + n > ip->size)
    n = ip->size - off;

  for(tot=0; tot<n; tot+=m, off+=m, dst+=m){
    bp = bread(ip->dev, bmap(ip, off/BSIZE));
  1014fc:	e8 7f fd ff ff       	call   101280 <bmap>
  101501:	89 44 24 04          	mov    %eax,0x4(%esp)
  101505:	8b 07                	mov    (%edi),%eax
  101507:	89 04 24             	mov    %eax,(%esp)
  10150a:	e8 91 eb ff ff       	call   1000a0 <bread>
    m = min(n - tot, BSIZE - off%BSIZE);
  10150f:	89 da                	mov    %ebx,%edx
  101511:	81 e2 ff 01 00 00    	and    $0x1ff,%edx
  101517:	29 d6                	sub    %edx,%esi
    return -1;
  if(off + n > ip->size)
    n = ip->size - off;

  for(tot=0; tot<n; tot+=m, off+=m, dst+=m){
    bp = bread(ip->dev, bmap(ip, off/BSIZE));
  101519:	89 45 f0             	mov    %eax,-0x10(%ebp)
    m = min(n - tot, BSIZE - off%BSIZE);
  10151c:	8b 45 e4             	mov    -0x1c(%ebp),%eax
  10151f:	2b 45 ec             	sub    -0x14(%ebp),%eax
  101522:	39 c6                	cmp    %eax,%esi
  101524:	76 02                	jbe    101528 <readi+0xc8>
  101526:	89 c6                	mov    %eax,%esi
    memmove(dst, bp->data + off%BSIZE, m);
  101528:	89 74 24 08          	mov    %esi,0x8(%esp)
  10152c:	8b 4d f0             	mov    -0x10(%ebp),%ecx
  if(off > ip->size || off + n < off)
    return -1;
  if(off + n > ip->size)
    n = ip->size - off;

  for(tot=0; tot<n; tot+=m, off+=m, dst+=m){
  10152f:	01 f3                	add    %esi,%ebx
    bp = bread(ip->dev, bmap(ip, off/BSIZE));
    m = min(n - tot, BSIZE - off%BSIZE);
    memmove(dst, bp->data + off%BSIZE, m);
  101531:	8d 44 11 18          	lea    0x18(%ecx,%edx,1),%eax
  101535:	89 44 24 04          	mov    %eax,0x4(%esp)
  101539:	8b 45 e8             	mov    -0x18(%ebp),%eax
  10153c:	89 04 24             	mov    %eax,(%esp)
  10153f:	e8 dc 25 00 00       	call   103b20 <memmove>
    brelse(bp);
  101544:	8b 4d f0             	mov    -0x10(%ebp),%ecx
  101547:	89 0c 24             	mov    %ecx,(%esp)
  10154a:	e8 b1 ea ff ff       	call   100000 <brelse>
  if(off > ip->size || off + n < off)
    return -1;
  if(off + n > ip->size)
    n = ip->size - off;

  for(tot=0; tot<n; tot+=m, off+=m, dst+=m){
  10154f:	01 75 ec             	add    %esi,-0x14(%ebp)
  101552:	8b 45 ec             	mov    -0x14(%ebp),%eax
  101555:	01 75 e8             	add    %esi,-0x18(%ebp)
  101558:	39 45 e4             	cmp    %eax,-0x1c(%ebp)
  10155b:	77 93                	ja     1014f0 <readi+0x90>
    bp = bread(ip->dev, bmap(ip, off/BSIZE));
    m = min(n - tot, BSIZE - off%BSIZE);
    memmove(dst, bp->data + off%BSIZE, m);
    brelse(bp);
  }
  return n;
  10155d:	8b 45 e4             	mov    -0x1c(%ebp),%eax
  101560:	e9 2f ff ff ff       	jmp    101494 <readi+0x34>
  101565:	8d 74 26 00          	lea    0x0(%esi),%esi
  101569:	8d bc 27 00 00 00 00 	lea    0x0(%edi),%edi

00101570 <namecmp>:

// Directories

int
namecmp(const char *s, const char *t)
{
  101570:	55                   	push   %ebp
  101571:	89 e5                	mov    %esp,%ebp
  101573:	83 ec 18             	sub    $0x18,%esp
  return strncmp(s, t, DIRSIZ);
  101576:	8b 45 0c             	mov    0xc(%ebp),%eax
  101579:	c7 44 24 08 0e 00 00 	movl   $0xe,0x8(%esp)
  101580:	00 
  101581:	89 44 24 04          	mov    %eax,0x4(%esp)
  101585:	8b 45 08             	mov    0x8(%ebp),%eax
  101588:	89 04 24             	mov    %eax,(%esp)
  10158b:	e8 00 26 00 00       	call   103b90 <strncmp>
}
  101590:	c9                   	leave  
  101591:	c3                   	ret    
  101592:	8d b4 26 00 00 00 00 	lea    0x0(%esi),%esi
  101599:	8d bc 27 00 00 00 00 	lea    0x0(%edi),%edi

001015a0 <dirlookup>:
// Look for a directory entry in a directory.
// If found, set *poff to byte offset of entry.
// Caller must have already locked dp.
struct inode*
dirlookup(struct inode *dp, char *name, uint *poff)
{
  1015a0:	55                   	push   %ebp
  1015a1:	89 e5                	mov    %esp,%ebp
  1015a3:	57                   	push   %edi
  1015a4:	56                   	push   %esi
  1015a5:	53                   	push   %ebx
  1015a6:	83 ec 1c             	sub    $0x1c,%esp
  1015a9:	8b 45 08             	mov    0x8(%ebp),%eax
  1015ac:	8b 55 0c             	mov    0xc(%ebp),%edx
  1015af:	8b 4d 10             	mov    0x10(%ebp),%ecx
  1015b2:	89 45 e8             	mov    %eax,-0x18(%ebp)
  1015b5:	89 55 e4             	mov    %edx,-0x1c(%ebp)
  1015b8:	89 4d e0             	mov    %ecx,-0x20(%ebp)
  uint off, inum;
  struct buf *bp;
  struct dirent *de;

  if(dp->type != T_DIR)
  1015bb:	66 83 78 10 01       	cmpw   $0x1,0x10(%eax)
  1015c0:	0f 85 cd 00 00 00    	jne    101693 <dirlookup+0xf3>
    panic("dirlookup not DIR");
  1015c6:	c7 45 f0 00 00 00 00 	movl   $0x0,-0x10(%ebp)

  for(off = 0; off < dp->size; off += BSIZE){
  1015cd:	8b 78 18             	mov    0x18(%eax),%edi
  1015d0:	85 ff                	test   %edi,%edi
  1015d2:	0f 84 b1 00 00 00    	je     101689 <dirlookup+0xe9>
    bp = bread(dp->dev, bmap(dp, off / BSIZE));
  1015d8:	8b 55 f0             	mov    -0x10(%ebp),%edx
  1015db:	8b 45 e8             	mov    -0x18(%ebp),%eax
  1015de:	c1 ea 09             	shr    $0x9,%edx
  1015e1:	e8 9a fc ff ff       	call   101280 <bmap>
  1015e6:	89 44 24 04          	mov    %eax,0x4(%esp)
  1015ea:	8b 55 e8             	mov    -0x18(%ebp),%edx
  1015ed:	8b 02                	mov    (%edx),%eax
  1015ef:	89 04 24             	mov    %eax,(%esp)
  1015f2:	e8 a9 ea ff ff       	call   1000a0 <bread>
    for(de = (struct dirent*)bp->data;
  1015f7:	8d 48 18             	lea    0x18(%eax),%ecx

  if(dp->type != T_DIR)
    panic("dirlookup not DIR");

  for(off = 0; off < dp->size; off += BSIZE){
    bp = bread(dp->dev, bmap(dp, off / BSIZE));
  1015fa:	89 c7                	mov    %eax,%edi
    for(de = (struct dirent*)bp->data;
        de < (struct dirent*)(bp->data + BSIZE);
  1015fc:	8d b0 18 02 00 00    	lea    0x218(%eax),%esi
  if(dp->type != T_DIR)
    panic("dirlookup not DIR");

  for(off = 0; off < dp->size; off += BSIZE){
    bp = bread(dp->dev, bmap(dp, off / BSIZE));
    for(de = (struct dirent*)bp->data;
  101602:	89 cb                	mov    %ecx,%ebx
        de < (struct dirent*)(bp->data + BSIZE);
  101604:	39 f1                	cmp    %esi,%ecx
  if(dp->type != T_DIR)
    panic("dirlookup not DIR");

  for(off = 0; off < dp->size; off += BSIZE){
    bp = bread(dp->dev, bmap(dp, off / BSIZE));
    for(de = (struct dirent*)bp->data;
  101606:	89 4d ec             	mov    %ecx,-0x14(%ebp)
        de < (struct dirent*)(bp->data + BSIZE);
  101609:	72 0c                	jb     101617 <dirlookup+0x77>
  10160b:	eb 5e                	jmp    10166b <dirlookup+0xcb>
  10160d:	8d 76 00             	lea    0x0(%esi),%esi
        de++){
  101610:	83 c3 10             	add    $0x10,%ebx
    panic("dirlookup not DIR");

  for(off = 0; off < dp->size; off += BSIZE){
    bp = bread(dp->dev, bmap(dp, off / BSIZE));
    for(de = (struct dirent*)bp->data;
        de < (struct dirent*)(bp->data + BSIZE);
  101613:	39 f3                	cmp    %esi,%ebx
  101615:	73 54                	jae    10166b <dirlookup+0xcb>
        de++){
      if(de->inum == 0)
  101617:	66 83 3b 00          	cmpw   $0x0,(%ebx)
  10161b:	90                   	nop    
  10161c:	8d 74 26 00          	lea    0x0(%esi),%esi
  101620:	74 ee                	je     101610 <dirlookup+0x70>
        continue;
      if(namecmp(name, de->name) == 0){
  101622:	8d 43 02             	lea    0x2(%ebx),%eax
  101625:	89 44 24 04          	mov    %eax,0x4(%esp)
  101629:	8b 45 e4             	mov    -0x1c(%ebp),%eax
  10162c:	89 04 24             	mov    %eax,(%esp)
  10162f:	e8 3c ff ff ff       	call   101570 <namecmp>
  101634:	85 c0                	test   %eax,%eax
  101636:	75 d8                	jne    101610 <dirlookup+0x70>
        // entry matches path element
        if(poff)
  101638:	8b 75 e0             	mov    -0x20(%ebp),%esi
  10163b:	85 f6                	test   %esi,%esi
  10163d:	74 0e                	je     10164d <dirlookup+0xad>
          *poff = off + (uchar*)de - bp->data;
  10163f:	8b 55 f0             	mov    -0x10(%ebp),%edx
  101642:	8b 4d e0             	mov    -0x20(%ebp),%ecx
  101645:	8d 04 13             	lea    (%ebx,%edx,1),%eax
  101648:	2b 45 ec             	sub    -0x14(%ebp),%eax
  10164b:	89 01                	mov    %eax,(%ecx)
        inum = de->inum;
  10164d:	0f b7 1b             	movzwl (%ebx),%ebx
        brelse(bp);
  101650:	89 3c 24             	mov    %edi,(%esp)
  101653:	e8 a8 e9 ff ff       	call   100000 <brelse>
        return iget(dp->dev, inum);
  101658:	8b 4d e8             	mov    -0x18(%ebp),%ecx
  10165b:	89 da                	mov    %ebx,%edx
  10165d:	8b 01                	mov    (%ecx),%eax
      }
    }
    brelse(bp);
  }
  return 0;
}
  10165f:	83 c4 1c             	add    $0x1c,%esp
  101662:	5b                   	pop    %ebx
  101663:	5e                   	pop    %esi
  101664:	5f                   	pop    %edi
  101665:	5d                   	pop    %ebp
        // entry matches path element
        if(poff)
          *poff = off + (uchar*)de - bp->data;
        inum = de->inum;
        brelse(bp);
        return iget(dp->dev, inum);
  101666:	e9 a5 f9 ff ff       	jmp    101010 <iget>
      }
    }
    brelse(bp);
  10166b:	89 3c 24             	mov    %edi,(%esp)
  10166e:	e8 8d e9 ff ff       	call   100000 <brelse>
  struct dirent *de;

  if(dp->type != T_DIR)
    panic("dirlookup not DIR");

  for(off = 0; off < dp->size; off += BSIZE){
  101673:	8b 45 e8             	mov    -0x18(%ebp),%eax
  101676:	81 45 f0 00 02 00 00 	addl   $0x200,-0x10(%ebp)
  10167d:	8b 55 f0             	mov    -0x10(%ebp),%edx
  101680:	39 50 18             	cmp    %edx,0x18(%eax)
  101683:	0f 87 4f ff ff ff    	ja     1015d8 <dirlookup+0x38>
      }
    }
    brelse(bp);
  }
  return 0;
}
  101689:	83 c4 1c             	add    $0x1c,%esp
  10168c:	31 c0                	xor    %eax,%eax
  10168e:	5b                   	pop    %ebx
  10168f:	5e                   	pop    %esi
  101690:	5f                   	pop    %edi
  101691:	5d                   	pop    %ebp
  101692:	c3                   	ret    
  uint off, inum;
  struct buf *bp;
  struct dirent *de;

  if(dp->type != T_DIR)
    panic("dirlookup not DIR");
  101693:	c7 04 24 64 62 10 00 	movl   $0x106264,(%esp)
  10169a:	e8 e1 f1 ff ff       	call   100880 <panic>
  10169f:	90                   	nop    

001016a0 <iunlock>:
}

// Unlock the given inode.
void
iunlock(struct inode *ip)
{
  1016a0:	55                   	push   %ebp
  1016a1:	89 e5                	mov    %esp,%ebp
  1016a3:	53                   	push   %ebx
  1016a4:	83 ec 04             	sub    $0x4,%esp
  1016a7:	8b 5d 08             	mov    0x8(%ebp),%ebx
  if(ip == 0 || !(ip->flags & I_BUSY) || ip->ref < 1)
  1016aa:	85 db                	test   %ebx,%ebx
  1016ac:	74 36                	je     1016e4 <iunlock+0x44>
  1016ae:	f6 43 0c 01          	testb  $0x1,0xc(%ebx)
  1016b2:	74 30                	je     1016e4 <iunlock+0x44>
  1016b4:	8b 43 08             	mov    0x8(%ebx),%eax
  1016b7:	85 c0                	test   %eax,%eax
  1016b9:	7e 29                	jle    1016e4 <iunlock+0x44>
    panic("iunlock");

  acquire(&icache.lock);
  1016bb:	c7 04 24 60 9a 10 00 	movl   $0x109a60,(%esp)
  1016c2:	e8 49 23 00 00       	call   103a10 <acquire>
  ip->flags &= ~I_BUSY;
  1016c7:	83 63 0c fe          	andl   $0xfffffffe,0xc(%ebx)
  wakeup(ip);
  1016cb:	89 1c 24             	mov    %ebx,(%esp)
  1016ce:	e8 2d 19 00 00       	call   103000 <wakeup>
  release(&icache.lock);
  1016d3:	c7 45 08 60 9a 10 00 	movl   $0x109a60,0x8(%ebp)
}
  1016da:	83 c4 04             	add    $0x4,%esp
  1016dd:	5b                   	pop    %ebx
  1016de:	5d                   	pop    %ebp
    panic("iunlock");

  acquire(&icache.lock);
  ip->flags &= ~I_BUSY;
  wakeup(ip);
  release(&icache.lock);
  1016df:	e9 ec 22 00 00       	jmp    1039d0 <release>
// Unlock the given inode.
void
iunlock(struct inode *ip)
{
  if(ip == 0 || !(ip->flags & I_BUSY) || ip->ref < 1)
    panic("iunlock");
  1016e4:	c7 04 24 76 62 10 00 	movl   $0x106276,(%esp)
  1016eb:	e8 90 f1 ff ff       	call   100880 <panic>

001016f0 <ialloc>:
static struct inode* iget(uint dev, uint inum);

// Allocate a new inode with the given type on device dev.
struct inode*
ialloc(uint dev, short type)
{
  1016f0:	55                   	push   %ebp
  1016f1:	89 e5                	mov    %esp,%ebp
  1016f3:	57                   	push   %edi
  1016f4:	56                   	push   %esi
  1016f5:	53                   	push   %ebx
  1016f6:	83 ec 2c             	sub    $0x2c,%esp
  1016f9:	0f b7 45 0c          	movzwl 0xc(%ebp),%eax
  int inum;
  struct buf *bp;
  struct dinode *dip;
  struct superblock sb;

  readsb(dev, &sb);
  1016fd:	8d 55 e8             	lea    -0x18(%ebp),%edx
static struct inode* iget(uint dev, uint inum);

// Allocate a new inode with the given type on device dev.
struct inode*
ialloc(uint dev, short type)
{
  101700:	66 89 45 de          	mov    %ax,-0x22(%ebp)
  int inum;
  struct buf *bp;
  struct dinode *dip;
  struct superblock sb;

  readsb(dev, &sb);
  101704:	8b 45 08             	mov    0x8(%ebp),%eax
  101707:	e8 b4 f9 ff ff       	call   1010c0 <readsb>
  for(inum = 1; inum < sb.ninodes; inum++){  // loop over inode blocks
  10170c:	83 7d f0 01          	cmpl   $0x1,-0x10(%ebp)
  101710:	0f 86 8e 00 00 00    	jbe    1017a4 <ialloc+0xb4>
  101716:	bf 01 00 00 00       	mov    $0x1,%edi
  10171b:	c7 45 e0 01 00 00 00 	movl   $0x1,-0x20(%ebp)
  101722:	eb 14                	jmp    101738 <ialloc+0x48>
      dip->type = type;
      bwrite(bp);   // mark it allocated on the disk
      brelse(bp);
      return iget(dev, inum);
    }
    brelse(bp);
  101724:	89 34 24             	mov    %esi,(%esp)
  101727:	e8 d4 e8 ff ff       	call   100000 <brelse>
  struct buf *bp;
  struct dinode *dip;
  struct superblock sb;

  readsb(dev, &sb);
  for(inum = 1; inum < sb.ninodes; inum++){  // loop over inode blocks
  10172c:	83 45 e0 01          	addl   $0x1,-0x20(%ebp)
  101730:	8b 7d e0             	mov    -0x20(%ebp),%edi
  101733:	39 7d f0             	cmp    %edi,-0x10(%ebp)
  101736:	76 6c                	jbe    1017a4 <ialloc+0xb4>
    bp = bread(dev, IBLOCK(inum));
  101738:	89 f8                	mov    %edi,%eax
  10173a:	c1 e8 03             	shr    $0x3,%eax
  10173d:	83 c0 02             	add    $0x2,%eax
  101740:	89 44 24 04          	mov    %eax,0x4(%esp)
  101744:	8b 45 08             	mov    0x8(%ebp),%eax
  101747:	89 04 24             	mov    %eax,(%esp)
  10174a:	e8 51 e9 ff ff       	call   1000a0 <bread>
  10174f:	89 c6                	mov    %eax,%esi
    dip = (struct dinode*)bp->data + inum%IPB;
  101751:	89 f8                	mov    %edi,%eax
  101753:	83 e0 07             	and    $0x7,%eax
  101756:	c1 e0 06             	shl    $0x6,%eax
  101759:	8d 5c 06 18          	lea    0x18(%esi,%eax,1),%ebx
    if(dip->type == 0){  // a free inode
  10175d:	66 83 3b 00          	cmpw   $0x0,(%ebx)
  101761:	75 c1                	jne    101724 <ialloc+0x34>
      memset(dip, 0, sizeof(*dip));
  101763:	89 1c 24             	mov    %ebx,(%esp)
  101766:	c7 44 24 08 40 00 00 	movl   $0x40,0x8(%esp)
  10176d:	00 
  10176e:	c7 44 24 04 00 00 00 	movl   $0x0,0x4(%esp)
  101775:	00 
  101776:	e8 05 23 00 00       	call   103a80 <memset>
      dip->type = type;
  10177b:	0f b7 45 de          	movzwl -0x22(%ebp),%eax
  10177f:	66 89 03             	mov    %ax,(%ebx)
      bwrite(bp);   // mark it allocated on the disk
  101782:	89 34 24             	mov    %esi,(%esp)
  101785:	e8 e6 e8 ff ff       	call   100070 <bwrite>
      brelse(bp);
  10178a:	89 34 24             	mov    %esi,(%esp)
  10178d:	e8 6e e8 ff ff       	call   100000 <brelse>
      return iget(dev, inum);
  101792:	8b 45 08             	mov    0x8(%ebp),%eax
  101795:	89 fa                	mov    %edi,%edx
  101797:	e8 74 f8 ff ff       	call   101010 <iget>
    }
    brelse(bp);
  }
  panic("ialloc: no inodes");
}
  10179c:	83 c4 2c             	add    $0x2c,%esp
  10179f:	5b                   	pop    %ebx
  1017a0:	5e                   	pop    %esi
  1017a1:	5f                   	pop    %edi
  1017a2:	5d                   	pop    %ebp
  1017a3:	c3                   	ret    
      brelse(bp);
      return iget(dev, inum);
    }
    brelse(bp);
  }
  panic("ialloc: no inodes");
  1017a4:	c7 04 24 7e 62 10 00 	movl   $0x10627e,(%esp)
  1017ab:	e8 d0 f0 ff ff       	call   100880 <panic>

001017b0 <bfree>:
}

// Free a disk block.
static void
bfree(int dev, uint b)
{
  1017b0:	55                   	push   %ebp
  1017b1:	89 e5                	mov    %esp,%ebp
  1017b3:	57                   	push   %edi
  1017b4:	89 d7                	mov    %edx,%edi
  1017b6:	56                   	push   %esi
  1017b7:	89 c6                	mov    %eax,%esi
  1017b9:	53                   	push   %ebx
  1017ba:	83 ec 1c             	sub    $0x1c,%esp
static void
bzero(int dev, int bno)
{
  struct buf *bp;
  
  bp = bread(dev, bno);
  1017bd:	89 54 24 04          	mov    %edx,0x4(%esp)
  1017c1:	89 04 24             	mov    %eax,(%esp)
  1017c4:	e8 d7 e8 ff ff       	call   1000a0 <bread>
  memset(bp->data, 0, BSIZE);
  1017c9:	c7 44 24 08 00 02 00 	movl   $0x200,0x8(%esp)
  1017d0:	00 
  1017d1:	c7 44 24 04 00 00 00 	movl   $0x0,0x4(%esp)
  1017d8:	00 
static void
bzero(int dev, int bno)
{
  struct buf *bp;
  
  bp = bread(dev, bno);
  1017d9:	89 c3                	mov    %eax,%ebx
  memset(bp->data, 0, BSIZE);
  1017db:	8d 40 18             	lea    0x18(%eax),%eax
  1017de:	89 04 24             	mov    %eax,(%esp)
  1017e1:	e8 9a 22 00 00       	call   103a80 <memset>
  bwrite(bp);
  1017e6:	89 1c 24             	mov    %ebx,(%esp)
  1017e9:	e8 82 e8 ff ff       	call   100070 <bwrite>
  brelse(bp);
  1017ee:	89 1c 24             	mov    %ebx,(%esp)
  1017f1:	e8 0a e8 ff ff       	call   100000 <brelse>
  struct superblock sb;
  int bi, m;

  bzero(dev, b);

  readsb(dev, &sb);
  1017f6:	89 f0                	mov    %esi,%eax
  1017f8:	8d 55 e8             	lea    -0x18(%ebp),%edx
  1017fb:	e8 c0 f8 ff ff       	call   1010c0 <readsb>
  bp = bread(dev, BBLOCK(b, sb.ninodes));
  101800:	8b 45 f0             	mov    -0x10(%ebp),%eax
  101803:	89 fa                	mov    %edi,%edx
  101805:	c1 ea 0c             	shr    $0xc,%edx
  101808:	89 34 24             	mov    %esi,(%esp)
  bi = b % BPB;
  m = 1 << (bi % 8);
  10180b:	be 01 00 00 00       	mov    $0x1,%esi
  int bi, m;

  bzero(dev, b);

  readsb(dev, &sb);
  bp = bread(dev, BBLOCK(b, sb.ninodes));
  101810:	c1 e8 03             	shr    $0x3,%eax
  101813:	8d 44 10 03          	lea    0x3(%eax,%edx,1),%eax
  101817:	89 44 24 04          	mov    %eax,0x4(%esp)
  10181b:	e8 80 e8 ff ff       	call   1000a0 <bread>
  101820:	89 c3                	mov    %eax,%ebx
  bi = b % BPB;
  m = 1 << (bi % 8);
  101822:	89 f8                	mov    %edi,%eax
  101824:	25 ff 0f 00 00       	and    $0xfff,%eax
  101829:	89 c1                	mov    %eax,%ecx
  10182b:	83 e1 07             	and    $0x7,%ecx
  10182e:	d3 e6                	shl    %cl,%esi
  if((bp->data[bi/8] & m) == 0)
  101830:	89 c1                	mov    %eax,%ecx
  101832:	c1 f9 03             	sar    $0x3,%ecx
  101835:	0f b6 54 0b 18       	movzbl 0x18(%ebx,%ecx,1),%edx
  10183a:	0f b6 c2             	movzbl %dl,%eax
  10183d:	85 f0                	test   %esi,%eax
  10183f:	74 22                	je     101863 <bfree+0xb3>
    panic("freeing free block");
  bp->data[bi/8] &= ~m;  // Mark block free on disk.
  101841:	89 f0                	mov    %esi,%eax
  101843:	f7 d0                	not    %eax
  101845:	21 d0                	and    %edx,%eax
  101847:	88 44 0b 18          	mov    %al,0x18(%ebx,%ecx,1)
  bwrite(bp);
  10184b:	89 1c 24             	mov    %ebx,(%esp)
  10184e:	e8 1d e8 ff ff       	call   100070 <bwrite>
  brelse(bp);
  101853:	89 1c 24             	mov    %ebx,(%esp)
  101856:	e8 a5 e7 ff ff       	call   100000 <brelse>
}
  10185b:	83 c4 1c             	add    $0x1c,%esp
  10185e:	5b                   	pop    %ebx
  10185f:	5e                   	pop    %esi
  101860:	5f                   	pop    %edi
  101861:	5d                   	pop    %ebp
  101862:	c3                   	ret    
  readsb(dev, &sb);
  bp = bread(dev, BBLOCK(b, sb.ninodes));
  bi = b % BPB;
  m = 1 << (bi % 8);
  if((bp->data[bi/8] & m) == 0)
    panic("freeing free block");
  101863:	c7 04 24 90 62 10 00 	movl   $0x106290,(%esp)
  10186a:	e8 11 f0 ff ff       	call   100880 <panic>
  10186f:	90                   	nop    

00101870 <iput>:
}

// Caller holds reference to unlocked ip.  Drop reference.
void
iput(struct inode *ip)
{
  101870:	55                   	push   %ebp
  101871:	89 e5                	mov    %esp,%ebp
  101873:	57                   	push   %edi
  101874:	56                   	push   %esi
  101875:	53                   	push   %ebx
  101876:	83 ec 0c             	sub    $0xc,%esp
  101879:	8b 75 08             	mov    0x8(%ebp),%esi
  acquire(&icache.lock);
  10187c:	c7 04 24 60 9a 10 00 	movl   $0x109a60,(%esp)
  101883:	e8 88 21 00 00       	call   103a10 <acquire>
  if(ip->ref == 1 && (ip->flags & I_VALID) && ip->nlink == 0){
  101888:	83 7e 08 01          	cmpl   $0x1,0x8(%esi)
  10188c:	0f 85 9e 00 00 00    	jne    101930 <iput+0xc0>
  101892:	8b 46 0c             	mov    0xc(%esi),%eax
  101895:	a8 02                	test   $0x2,%al
  101897:	0f 84 93 00 00 00    	je     101930 <iput+0xc0>
  10189d:	66 83 7e 16 00       	cmpw   $0x0,0x16(%esi)
  1018a2:	0f 85 88 00 00 00    	jne    101930 <iput+0xc0>
    // inode is no longer used: truncate and free inode.
    if(ip->flags & I_BUSY)
  1018a8:	a8 01                	test   $0x1,%al
  1018aa:	0f 85 f3 00 00 00    	jne    1019a3 <iput+0x133>
      panic("iput busy");
    ip->flags |= I_BUSY;
  1018b0:	83 c8 01             	or     $0x1,%eax
    release(&icache.lock);
  1018b3:	31 db                	xor    %ebx,%ebx
  acquire(&icache.lock);
  if(ip->ref == 1 && (ip->flags & I_VALID) && ip->nlink == 0){
    // inode is no longer used: truncate and free inode.
    if(ip->flags & I_BUSY)
      panic("iput busy");
    ip->flags |= I_BUSY;
  1018b5:	89 46 0c             	mov    %eax,0xc(%esi)
    release(&icache.lock);
  1018b8:	c7 04 24 60 9a 10 00 	movl   $0x109a60,(%esp)
  1018bf:	e8 0c 21 00 00       	call   1039d0 <release>
  1018c4:	eb 08                	jmp    1018ce <iput+0x5e>
{
  int i, j;
  struct buf *bp;
  uint *a;

  for(i = 0; i < NDIRECT; i++){
  1018c6:	83 c3 01             	add    $0x1,%ebx
  1018c9:	83 fb 0c             	cmp    $0xc,%ebx
  1018cc:	74 1f                	je     1018ed <iput+0x7d>
    if(ip->addrs[i]){
  1018ce:	8b 54 9e 1c          	mov    0x1c(%esi,%ebx,4),%edx
  1018d2:	85 d2                	test   %edx,%edx
  1018d4:	74 f0                	je     1018c6 <iput+0x56>
      bfree(ip->dev, ip->addrs[i]);
  1018d6:	8b 06                	mov    (%esi),%eax
  1018d8:	e8 d3 fe ff ff       	call   1017b0 <bfree>
      ip->addrs[i] = 0;
  1018dd:	c7 44 9e 1c 00 00 00 	movl   $0x0,0x1c(%esi,%ebx,4)
  1018e4:	00 
{
  int i, j;
  struct buf *bp;
  uint *a;

  for(i = 0; i < NDIRECT; i++){
  1018e5:	83 c3 01             	add    $0x1,%ebx
  1018e8:	83 fb 0c             	cmp    $0xc,%ebx
  1018eb:	75 e1                	jne    1018ce <iput+0x5e>
      bfree(ip->dev, ip->addrs[i]);
      ip->addrs[i] = 0;
    }
  }
  
  if(ip->addrs[NDIRECT]){
  1018ed:	8b 46 4c             	mov    0x4c(%esi),%eax
  1018f0:	85 c0                	test   %eax,%eax
  1018f2:	75 53                	jne    101947 <iput+0xd7>
    brelse(bp);
    bfree(ip->dev, ip->addrs[NDIRECT]);
    ip->addrs[NDIRECT] = 0;
  }

  ip->size = 0;
  1018f4:	c7 46 18 00 00 00 00 	movl   $0x0,0x18(%esi)
  iupdate(ip);
  1018fb:	89 34 24             	mov    %esi,(%esp)
  1018fe:	e8 0d f8 ff ff       	call   101110 <iupdate>
    if(ip->flags & I_BUSY)
      panic("iput busy");
    ip->flags |= I_BUSY;
    release(&icache.lock);
    itrunc(ip);
    ip->type = 0;
  101903:	66 c7 46 10 00 00    	movw   $0x0,0x10(%esi)
    iupdate(ip);
  101909:	89 34 24             	mov    %esi,(%esp)
  10190c:	e8 ff f7 ff ff       	call   101110 <iupdate>
    acquire(&icache.lock);
  101911:	c7 04 24 60 9a 10 00 	movl   $0x109a60,(%esp)
  101918:	e8 f3 20 00 00       	call   103a10 <acquire>
    ip->flags = 0;
  10191d:	c7 46 0c 00 00 00 00 	movl   $0x0,0xc(%esi)
    wakeup(ip);
  101924:	89 34 24             	mov    %esi,(%esp)
  101927:	e8 d4 16 00 00       	call   103000 <wakeup>
  10192c:	8d 74 26 00          	lea    0x0(%esi),%esi
  }
  ip->ref--;
  101930:	83 6e 08 01          	subl   $0x1,0x8(%esi)
  release(&icache.lock);
  101934:	c7 45 08 60 9a 10 00 	movl   $0x109a60,0x8(%ebp)
}
  10193b:	83 c4 0c             	add    $0xc,%esp
  10193e:	5b                   	pop    %ebx
  10193f:	5e                   	pop    %esi
  101940:	5f                   	pop    %edi
  101941:	5d                   	pop    %ebp
    acquire(&icache.lock);
    ip->flags = 0;
    wakeup(ip);
  }
  ip->ref--;
  release(&icache.lock);
  101942:	e9 89 20 00 00       	jmp    1039d0 <release>
      ip->addrs[i] = 0;
    }
  }
  
  if(ip->addrs[NDIRECT]){
    bp = bread(ip->dev, ip->addrs[NDIRECT]);
  101947:	89 44 24 04          	mov    %eax,0x4(%esp)
  10194b:	8b 06                	mov    (%esi),%eax
    a = (uint*)bp->data;
  10194d:	30 db                	xor    %bl,%bl
      ip->addrs[i] = 0;
    }
  }
  
  if(ip->addrs[NDIRECT]){
    bp = bread(ip->dev, ip->addrs[NDIRECT]);
  10194f:	89 04 24             	mov    %eax,(%esp)
  101952:	e8 49 e7 ff ff       	call   1000a0 <bread>
    a = (uint*)bp->data;
  101957:	89 c7                	mov    %eax,%edi
      ip->addrs[i] = 0;
    }
  }
  
  if(ip->addrs[NDIRECT]){
    bp = bread(ip->dev, ip->addrs[NDIRECT]);
  101959:	89 45 f0             	mov    %eax,-0x10(%ebp)
    a = (uint*)bp->data;
  10195c:	83 c7 18             	add    $0x18,%edi
  10195f:	31 c0                	xor    %eax,%eax
  101961:	eb 0d                	jmp    101970 <iput+0x100>
    for(j = 0; j < NINDIRECT; j++){
  101963:	83 c3 01             	add    $0x1,%ebx
  101966:	81 fb 80 00 00 00    	cmp    $0x80,%ebx
  10196c:	89 d8                	mov    %ebx,%eax
  10196e:	74 12                	je     101982 <iput+0x112>
      if(a[j])
  101970:	8b 14 87             	mov    (%edi,%eax,4),%edx
  101973:	85 d2                	test   %edx,%edx
  101975:	74 ec                	je     101963 <iput+0xf3>
        bfree(ip->dev, a[j]);
  101977:	8b 06                	mov    (%esi),%eax
  101979:	e8 32 fe ff ff       	call   1017b0 <bfree>
  10197e:	66 90                	xchg   %ax,%ax
  101980:	eb e1                	jmp    101963 <iput+0xf3>
    }
    brelse(bp);
  101982:	8b 45 f0             	mov    -0x10(%ebp),%eax
  101985:	89 04 24             	mov    %eax,(%esp)
  101988:	e8 73 e6 ff ff       	call   100000 <brelse>
    bfree(ip->dev, ip->addrs[NDIRECT]);
  10198d:	8b 56 4c             	mov    0x4c(%esi),%edx
  101990:	8b 06                	mov    (%esi),%eax
  101992:	e8 19 fe ff ff       	call   1017b0 <bfree>
    ip->addrs[NDIRECT] = 0;
  101997:	c7 46 4c 00 00 00 00 	movl   $0x0,0x4c(%esi)
  10199e:	e9 51 ff ff ff       	jmp    1018f4 <iput+0x84>
{
  acquire(&icache.lock);
  if(ip->ref == 1 && (ip->flags & I_VALID) && ip->nlink == 0){
    // inode is no longer used: truncate and free inode.
    if(ip->flags & I_BUSY)
      panic("iput busy");
  1019a3:	c7 04 24 a3 62 10 00 	movl   $0x1062a3,(%esp)
  1019aa:	e8 d1 ee ff ff       	call   100880 <panic>
  1019af:	90                   	nop    

001019b0 <dirlink>:
}

// Write a new directory entry (name, inum) into the directory dp.
int
dirlink(struct inode *dp, char *name, uint inum)
{
  1019b0:	55                   	push   %ebp
  1019b1:	89 e5                	mov    %esp,%ebp
  1019b3:	57                   	push   %edi
  1019b4:	56                   	push   %esi
  1019b5:	53                   	push   %ebx
  1019b6:	83 ec 2c             	sub    $0x2c,%esp
  1019b9:	8b 75 08             	mov    0x8(%ebp),%esi
  int off;
  struct dirent de;
  struct inode *ip;

  // Check that name is not present.
  if((ip = dirlookup(dp, name, 0)) != 0){
  1019bc:	8b 45 0c             	mov    0xc(%ebp),%eax
  1019bf:	c7 44 24 08 00 00 00 	movl   $0x0,0x8(%esp)
  1019c6:	00 
  1019c7:	89 34 24             	mov    %esi,(%esp)
  1019ca:	89 44 24 04          	mov    %eax,0x4(%esp)
  1019ce:	e8 cd fb ff ff       	call   1015a0 <dirlookup>
  1019d3:	85 c0                	test   %eax,%eax
  1019d5:	0f 85 98 00 00 00    	jne    101a73 <dirlink+0xc3>
    iput(ip);
    return -1;
  }

  // Look for an empty dirent.
  for(off = 0; off < dp->size; off += sizeof(de)){
  1019db:	8b 46 18             	mov    0x18(%esi),%eax
  1019de:	85 c0                	test   %eax,%eax
  1019e0:	0f 84 9c 00 00 00    	je     101a82 <dirlink+0xd2>
  struct inode *ip;

  // Check that name is not present.
  if((ip = dirlookup(dp, name, 0)) != 0){
    iput(ip);
    return -1;
  1019e6:	8d 7d e4             	lea    -0x1c(%ebp),%edi
  1019e9:	31 db                	xor    %ebx,%ebx
  1019eb:	eb 0b                	jmp    1019f8 <dirlink+0x48>
  1019ed:	8d 76 00             	lea    0x0(%esi),%esi
  }

  // Look for an empty dirent.
  for(off = 0; off < dp->size; off += sizeof(de)){
  1019f0:	83 c3 10             	add    $0x10,%ebx
  1019f3:	39 5e 18             	cmp    %ebx,0x18(%esi)
  1019f6:	76 24                	jbe    101a1c <dirlink+0x6c>
    if(readi(dp, (char*)&de, off, sizeof(de)) != sizeof(de))
  1019f8:	c7 44 24 0c 10 00 00 	movl   $0x10,0xc(%esp)
  1019ff:	00 
  101a00:	89 5c 24 08          	mov    %ebx,0x8(%esp)
  101a04:	89 7c 24 04          	mov    %edi,0x4(%esp)
  101a08:	89 34 24             	mov    %esi,(%esp)
  101a0b:	e8 50 fa ff ff       	call   101460 <readi>
  101a10:	83 f8 10             	cmp    $0x10,%eax
  101a13:	75 52                	jne    101a67 <dirlink+0xb7>
      panic("dirlink read");
    if(de.inum == 0)
  101a15:	66 83 7d e4 00       	cmpw   $0x0,-0x1c(%ebp)
  101a1a:	75 d4                	jne    1019f0 <dirlink+0x40>
      break;
  }

  strncpy(de.name, name, DIRSIZ);
  101a1c:	8b 45 0c             	mov    0xc(%ebp),%eax
  101a1f:	c7 44 24 08 0e 00 00 	movl   $0xe,0x8(%esp)
  101a26:	00 
  101a27:	89 44 24 04          	mov    %eax,0x4(%esp)
  101a2b:	8d 45 e6             	lea    -0x1a(%ebp),%eax
  101a2e:	89 04 24             	mov    %eax,(%esp)
  101a31:	e8 ba 21 00 00       	call   103bf0 <strncpy>
  de.inum = inum;
  101a36:	0f b7 45 10          	movzwl 0x10(%ebp),%eax
  if(writei(dp, (char*)&de, off, sizeof(de)) != sizeof(de))
  101a3a:	c7 44 24 0c 10 00 00 	movl   $0x10,0xc(%esp)
  101a41:	00 
  101a42:	89 5c 24 08          	mov    %ebx,0x8(%esp)
  101a46:	89 7c 24 04          	mov    %edi,0x4(%esp)
    if(de.inum == 0)
      break;
  }

  strncpy(de.name, name, DIRSIZ);
  de.inum = inum;
  101a4a:	66 89 45 e4          	mov    %ax,-0x1c(%ebp)
  if(writei(dp, (char*)&de, off, sizeof(de)) != sizeof(de))
  101a4e:	89 34 24             	mov    %esi,(%esp)
  101a51:	e8 da f8 ff ff       	call   101330 <writei>
    panic("dirlink");
  101a56:	31 d2                	xor    %edx,%edx
      break;
  }

  strncpy(de.name, name, DIRSIZ);
  de.inum = inum;
  if(writei(dp, (char*)&de, off, sizeof(de)) != sizeof(de))
  101a58:	83 f8 10             	cmp    $0x10,%eax
  101a5b:	75 2c                	jne    101a89 <dirlink+0xd9>
    panic("dirlink");
  
  return 0;
}
  101a5d:	83 c4 2c             	add    $0x2c,%esp
  101a60:	89 d0                	mov    %edx,%eax
  101a62:	5b                   	pop    %ebx
  101a63:	5e                   	pop    %esi
  101a64:	5f                   	pop    %edi
  101a65:	5d                   	pop    %ebp
  101a66:	c3                   	ret    
  }

  // Look for an empty dirent.
  for(off = 0; off < dp->size; off += sizeof(de)){
    if(readi(dp, (char*)&de, off, sizeof(de)) != sizeof(de))
      panic("dirlink read");
  101a67:	c7 04 24 ad 62 10 00 	movl   $0x1062ad,(%esp)
  101a6e:	e8 0d ee ff ff       	call   100880 <panic>
  struct dirent de;
  struct inode *ip;

  // Check that name is not present.
  if((ip = dirlookup(dp, name, 0)) != 0){
    iput(ip);
  101a73:	89 04 24             	mov    %eax,(%esp)
  101a76:	e8 f5 fd ff ff       	call   101870 <iput>
  101a7b:	ba ff ff ff ff       	mov    $0xffffffff,%edx
  101a80:	eb db                	jmp    101a5d <dirlink+0xad>
    return -1;
  }

  // Look for an empty dirent.
  for(off = 0; off < dp->size; off += sizeof(de)){
  101a82:	8d 7d e4             	lea    -0x1c(%ebp),%edi
  101a85:	31 db                	xor    %ebx,%ebx
  101a87:	eb 93                	jmp    101a1c <dirlink+0x6c>
  }

  strncpy(de.name, name, DIRSIZ);
  de.inum = inum;
  if(writei(dp, (char*)&de, off, sizeof(de)) != sizeof(de))
    panic("dirlink");
  101a89:	c7 04 24 62 68 10 00 	movl   $0x106862,(%esp)
  101a90:	e8 eb ed ff ff       	call   100880 <panic>
  101a95:	8d 74 26 00          	lea    0x0(%esi),%esi
  101a99:	8d bc 27 00 00 00 00 	lea    0x0(%edi),%edi

00101aa0 <iunlockput>:
}

// Common idiom: unlock, then put.
void
iunlockput(struct inode *ip)
{
  101aa0:	55                   	push   %ebp
  101aa1:	89 e5                	mov    %esp,%ebp
  101aa3:	53                   	push   %ebx
  101aa4:	83 ec 04             	sub    $0x4,%esp
  101aa7:	8b 5d 08             	mov    0x8(%ebp),%ebx
  iunlock(ip);
  101aaa:	89 1c 24             	mov    %ebx,(%esp)
  101aad:	e8 ee fb ff ff       	call   1016a0 <iunlock>
  iput(ip);
  101ab2:	89 5d 08             	mov    %ebx,0x8(%ebp)
}
  101ab5:	83 c4 04             	add    $0x4,%esp
  101ab8:	5b                   	pop    %ebx
  101ab9:	5d                   	pop    %ebp
// Common idiom: unlock, then put.
void
iunlockput(struct inode *ip)
{
  iunlock(ip);
  iput(ip);
  101aba:	e9 b1 fd ff ff       	jmp    101870 <iput>
  101abf:	90                   	nop    

00101ac0 <ilock>:
}

// Lock the given inode.
void
ilock(struct inode *ip)
{
  101ac0:	55                   	push   %ebp
  101ac1:	89 e5                	mov    %esp,%ebp
  101ac3:	56                   	push   %esi
  101ac4:	53                   	push   %ebx
  101ac5:	83 ec 10             	sub    $0x10,%esp
  101ac8:	8b 75 08             	mov    0x8(%ebp),%esi
  struct buf *bp;
  struct dinode *dip;

  if(ip == 0 || ip->ref < 1)
  101acb:	85 f6                	test   %esi,%esi
  101acd:	0f 84 dd 00 00 00    	je     101bb0 <ilock+0xf0>
  101ad3:	8b 46 08             	mov    0x8(%esi),%eax
  101ad6:	85 c0                	test   %eax,%eax
  101ad8:	0f 8e d2 00 00 00    	jle    101bb0 <ilock+0xf0>
    panic("ilock");

  acquire(&icache.lock);
  101ade:	c7 04 24 60 9a 10 00 	movl   $0x109a60,(%esp)
  101ae5:	e8 26 1f 00 00       	call   103a10 <acquire>
  while(ip->flags & I_BUSY)
  101aea:	8b 46 0c             	mov    0xc(%esi),%eax
  101aed:	a8 01                	test   $0x1,%al
  101aef:	74 17                	je     101b08 <ilock+0x48>
    sleep(ip, &icache.lock);
  101af1:	c7 44 24 04 60 9a 10 	movl   $0x109a60,0x4(%esp)
  101af8:	00 
  101af9:	89 34 24             	mov    %esi,(%esp)
  101afc:	e8 ef 15 00 00       	call   1030f0 <sleep>

  if(ip == 0 || ip->ref < 1)
    panic("ilock");

  acquire(&icache.lock);
  while(ip->flags & I_BUSY)
  101b01:	8b 46 0c             	mov    0xc(%esi),%eax
  101b04:	a8 01                	test   $0x1,%al
  101b06:	75 e9                	jne    101af1 <ilock+0x31>
    sleep(ip, &icache.lock);
  ip->flags |= I_BUSY;
  101b08:	83 c8 01             	or     $0x1,%eax
  101b0b:	89 46 0c             	mov    %eax,0xc(%esi)
  release(&icache.lock);
  101b0e:	c7 04 24 60 9a 10 00 	movl   $0x109a60,(%esp)
  101b15:	e8 b6 1e 00 00       	call   1039d0 <release>

  if(!(ip->flags & I_VALID)){
  101b1a:	f6 46 0c 02          	testb  $0x2,0xc(%esi)
  101b1e:	74 07                	je     101b27 <ilock+0x67>
    brelse(bp);
    ip->flags |= I_VALID;
    if(ip->type == 0)
      panic("ilock: no type");
  }
}
  101b20:	83 c4 10             	add    $0x10,%esp
  101b23:	5b                   	pop    %ebx
  101b24:	5e                   	pop    %esi
  101b25:	5d                   	pop    %ebp
  101b26:	c3                   	ret    
    sleep(ip, &icache.lock);
  ip->flags |= I_BUSY;
  release(&icache.lock);

  if(!(ip->flags & I_VALID)){
    bp = bread(ip->dev, IBLOCK(ip->inum));
  101b27:	8b 46 04             	mov    0x4(%esi),%eax
  101b2a:	c1 e8 03             	shr    $0x3,%eax
  101b2d:	83 c0 02             	add    $0x2,%eax
  101b30:	89 44 24 04          	mov    %eax,0x4(%esp)
  101b34:	8b 06                	mov    (%esi),%eax
  101b36:	89 04 24             	mov    %eax,(%esp)
  101b39:	e8 62 e5 ff ff       	call   1000a0 <bread>
  101b3e:	89 c3                	mov    %eax,%ebx
    dip = (struct dinode*)bp->data + ip->inum%IPB;
  101b40:	8b 46 04             	mov    0x4(%esi),%eax
  101b43:	83 e0 07             	and    $0x7,%eax
  101b46:	c1 e0 06             	shl    $0x6,%eax
  101b49:	8d 44 03 18          	lea    0x18(%ebx,%eax,1),%eax
    ip->type = dip->type;
  101b4d:	0f b7 10             	movzwl (%eax),%edx
  101b50:	66 89 56 10          	mov    %dx,0x10(%esi)
    ip->major = dip->major;
  101b54:	0f b7 50 02          	movzwl 0x2(%eax),%edx
  101b58:	66 89 56 12          	mov    %dx,0x12(%esi)
    ip->minor = dip->minor;
  101b5c:	0f b7 50 04          	movzwl 0x4(%eax),%edx
  101b60:	66 89 56 14          	mov    %dx,0x14(%esi)
    ip->nlink = dip->nlink;
  101b64:	0f b7 50 06          	movzwl 0x6(%eax),%edx
  101b68:	66 89 56 16          	mov    %dx,0x16(%esi)
    ip->size = dip->size;
  101b6c:	8b 50 08             	mov    0x8(%eax),%edx
    memmove(ip->addrs, dip->addrs, sizeof(ip->addrs));
  101b6f:	83 c0 0c             	add    $0xc,%eax
    dip = (struct dinode*)bp->data + ip->inum%IPB;
    ip->type = dip->type;
    ip->major = dip->major;
    ip->minor = dip->minor;
    ip->nlink = dip->nlink;
    ip->size = dip->size;
  101b72:	89 56 18             	mov    %edx,0x18(%esi)
    memmove(ip->addrs, dip->addrs, sizeof(ip->addrs));
  101b75:	89 44 24 04          	mov    %eax,0x4(%esp)
  101b79:	8d 46 1c             	lea    0x1c(%esi),%eax
  101b7c:	c7 44 24 08 34 00 00 	movl   $0x34,0x8(%esp)
  101b83:	00 
  101b84:	89 04 24             	mov    %eax,(%esp)
  101b87:	e8 94 1f 00 00       	call   103b20 <memmove>
    brelse(bp);
  101b8c:	89 1c 24             	mov    %ebx,(%esp)
  101b8f:	e8 6c e4 ff ff       	call   100000 <brelse>
    ip->flags |= I_VALID;
  101b94:	83 4e 0c 02          	orl    $0x2,0xc(%esi)
    if(ip->type == 0)
  101b98:	66 83 7e 10 00       	cmpw   $0x0,0x10(%esi)
  101b9d:	75 81                	jne    101b20 <ilock+0x60>
      panic("ilock: no type");
  101b9f:	c7 04 24 c0 62 10 00 	movl   $0x1062c0,(%esp)
  101ba6:	e8 d5 ec ff ff       	call   100880 <panic>
  101bab:	90                   	nop    
  101bac:	8d 74 26 00          	lea    0x0(%esi),%esi
{
  struct buf *bp;
  struct dinode *dip;

  if(ip == 0 || ip->ref < 1)
    panic("ilock");
  101bb0:	c7 04 24 ba 62 10 00 	movl   $0x1062ba,(%esp)
  101bb7:	e8 c4 ec ff ff       	call   100880 <panic>
  101bbc:	8d 74 26 00          	lea    0x0(%esi),%esi

00101bc0 <namex>:
// Look up and return the inode for a path name.
// If parent != 0, return the inode for the parent and copy the final
// path element into name, which must have room for DIRSIZ bytes.
static struct inode*
namex(char *path, int nameiparent, char *name)
{
  101bc0:	55                   	push   %ebp
  101bc1:	89 e5                	mov    %esp,%ebp
  101bc3:	57                   	push   %edi
  101bc4:	56                   	push   %esi
  101bc5:	89 c6                	mov    %eax,%esi
  101bc7:	53                   	push   %ebx
  101bc8:	83 ec 1c             	sub    $0x1c,%esp
  101bcb:	89 55 ec             	mov    %edx,-0x14(%ebp)
  101bce:	89 4d e8             	mov    %ecx,-0x18(%ebp)
  struct inode *ip, *next;

  if(*path == '/')
  101bd1:	80 38 2f             	cmpb   $0x2f,(%eax)
  101bd4:	0f 84 12 01 00 00    	je     101cec <namex+0x12c>
    ip = iget(ROOTDEV, ROOTINO);
  else
    ip = idup(proc->cwd);
  101bda:	65 a1 04 00 00 00    	mov    %gs:0x4,%eax
  101be0:	8b 40 68             	mov    0x68(%eax),%eax
  101be3:	89 04 24             	mov    %eax,(%esp)
  101be6:	e8 f5 f3 ff ff       	call   100fe0 <idup>
  101beb:	89 45 f0             	mov    %eax,-0x10(%ebp)
  101bee:	eb 03                	jmp    101bf3 <namex+0x33>
{
  char *s;
  int len;

  while(*path == '/')
    path++;
  101bf0:	83 c6 01             	add    $0x1,%esi
skipelem(char *path, char *name)
{
  char *s;
  int len;

  while(*path == '/')
  101bf3:	0f b6 06             	movzbl (%esi),%eax
  101bf6:	3c 2f                	cmp    $0x2f,%al
  101bf8:	74 f6                	je     101bf0 <namex+0x30>
    path++;
  if(*path == 0)
  101bfa:	84 c0                	test   %al,%al
  101bfc:	0f 84 bb 00 00 00    	je     101cbd <namex+0xfd>
  101c02:	89 f3                	mov    %esi,%ebx
    return 0;
  s = path;
  while(*path != '/' && *path != 0)
    path++;
  101c04:	83 c3 01             	add    $0x1,%ebx
  while(*path == '/')
    path++;
  if(*path == 0)
    return 0;
  s = path;
  while(*path != '/' && *path != 0)
  101c07:	0f b6 03             	movzbl (%ebx),%eax
  101c0a:	3c 2f                	cmp    $0x2f,%al
  101c0c:	74 04                	je     101c12 <namex+0x52>
  101c0e:	84 c0                	test   %al,%al
  101c10:	75 f2                	jne    101c04 <namex+0x44>
    path++;
  len = path - s;
  101c12:	89 df                	mov    %ebx,%edi
  101c14:	29 f7                	sub    %esi,%edi
  if(len >= DIRSIZ)
  101c16:	83 ff 0d             	cmp    $0xd,%edi
  101c19:	0f 8e 7f 00 00 00    	jle    101c9e <namex+0xde>
    memmove(name, s, DIRSIZ);
  101c1f:	c7 44 24 08 0e 00 00 	movl   $0xe,0x8(%esp)
  101c26:	00 
  101c27:	89 74 24 04          	mov    %esi,0x4(%esp)
  101c2b:	8b 45 e8             	mov    -0x18(%ebp),%eax
  101c2e:	89 04 24             	mov    %eax,(%esp)
  101c31:	e8 ea 1e 00 00       	call   103b20 <memmove>
  101c36:	eb 03                	jmp    101c3b <namex+0x7b>
  else {
    memmove(name, s, len);
    name[len] = 0;
  }
  while(*path == '/')
    path++;
  101c38:	83 c3 01             	add    $0x1,%ebx
    memmove(name, s, DIRSIZ);
  else {
    memmove(name, s, len);
    name[len] = 0;
  }
  while(*path == '/')
  101c3b:	80 3b 2f             	cmpb   $0x2f,(%ebx)
  101c3e:	74 f8                	je     101c38 <namex+0x78>
  if(*path == '/')
    ip = iget(ROOTDEV, ROOTINO);
  else
    ip = idup(proc->cwd);

  while((path = skipelem(path, name)) != 0){
  101c40:	85 db                	test   %ebx,%ebx
  101c42:	74 79                	je     101cbd <namex+0xfd>
    ilock(ip);
  101c44:	8b 45 f0             	mov    -0x10(%ebp),%eax
  101c47:	89 04 24             	mov    %eax,(%esp)
  101c4a:	e8 71 fe ff ff       	call   101ac0 <ilock>
    if(ip->type != T_DIR){
  101c4f:	8b 45 f0             	mov    -0x10(%ebp),%eax
  101c52:	66 83 78 10 01       	cmpw   $0x1,0x10(%eax)
  101c57:	75 79                	jne    101cd2 <namex+0x112>
      iunlockput(ip);
      return 0;
    }
    if(nameiparent && *path == '\0'){
  101c59:	8b 45 ec             	mov    -0x14(%ebp),%eax
  101c5c:	85 c0                	test   %eax,%eax
  101c5e:	74 09                	je     101c69 <namex+0xa9>
  101c60:	80 3b 00             	cmpb   $0x0,(%ebx)
  101c63:	0f 84 9a 00 00 00    	je     101d03 <namex+0x143>
      // Stop one level early.
      iunlock(ip);
      return ip;
    }
    if((next = dirlookup(ip, name, 0)) == 0){
  101c69:	c7 44 24 08 00 00 00 	movl   $0x0,0x8(%esp)
  101c70:	00 
  101c71:	8b 45 e8             	mov    -0x18(%ebp),%eax
  101c74:	89 44 24 04          	mov    %eax,0x4(%esp)
  101c78:	8b 45 f0             	mov    -0x10(%ebp),%eax
  101c7b:	89 04 24             	mov    %eax,(%esp)
  101c7e:	e8 1d f9 ff ff       	call   1015a0 <dirlookup>
  101c83:	85 c0                	test   %eax,%eax
  101c85:	89 c6                	mov    %eax,%esi
  101c87:	74 46                	je     101ccf <namex+0x10f>
      iunlockput(ip);
      return 0;
    }
    iunlockput(ip);
  101c89:	8b 45 f0             	mov    -0x10(%ebp),%eax
  101c8c:	89 04 24             	mov    %eax,(%esp)
  101c8f:	e8 0c fe ff ff       	call   101aa0 <iunlockput>
  101c94:	89 75 f0             	mov    %esi,-0x10(%ebp)
  101c97:	89 de                	mov    %ebx,%esi
  101c99:	e9 55 ff ff ff       	jmp    101bf3 <namex+0x33>
    path++;
  len = path - s;
  if(len >= DIRSIZ)
    memmove(name, s, DIRSIZ);
  else {
    memmove(name, s, len);
  101c9e:	89 7c 24 08          	mov    %edi,0x8(%esp)
  101ca2:	89 74 24 04          	mov    %esi,0x4(%esp)
  101ca6:	8b 45 e8             	mov    -0x18(%ebp),%eax
  101ca9:	89 04 24             	mov    %eax,(%esp)
  101cac:	e8 6f 1e 00 00       	call   103b20 <memmove>
    name[len] = 0;
  101cb1:	8b 45 e8             	mov    -0x18(%ebp),%eax
  101cb4:	c6 04 38 00          	movb   $0x0,(%eax,%edi,1)
  101cb8:	e9 7e ff ff ff       	jmp    101c3b <namex+0x7b>
      return 0;
    }
    iunlockput(ip);
    ip = next;
  }
  if(nameiparent){
  101cbd:	8b 45 ec             	mov    -0x14(%ebp),%eax
  101cc0:	85 c0                	test   %eax,%eax
  101cc2:	75 55                	jne    101d19 <namex+0x159>
    iput(ip);
    return 0;
  }
  return ip;
}
  101cc4:	8b 45 f0             	mov    -0x10(%ebp),%eax
  101cc7:	83 c4 1c             	add    $0x1c,%esp
  101cca:	5b                   	pop    %ebx
  101ccb:	5e                   	pop    %esi
  101ccc:	5f                   	pop    %edi
  101ccd:	5d                   	pop    %ebp
  101cce:	c3                   	ret    
      // Stop one level early.
      iunlock(ip);
      return ip;
    }
    if((next = dirlookup(ip, name, 0)) == 0){
      iunlockput(ip);
  101ccf:	8b 45 f0             	mov    -0x10(%ebp),%eax
  101cd2:	89 04 24             	mov    %eax,(%esp)
  101cd5:	e8 c6 fd ff ff       	call   101aa0 <iunlockput>
  101cda:	c7 45 f0 00 00 00 00 	movl   $0x0,-0x10(%ebp)
  if(nameiparent){
    iput(ip);
    return 0;
  }
  return ip;
}
  101ce1:	8b 45 f0             	mov    -0x10(%ebp),%eax
  101ce4:	83 c4 1c             	add    $0x1c,%esp
  101ce7:	5b                   	pop    %ebx
  101ce8:	5e                   	pop    %esi
  101ce9:	5f                   	pop    %edi
  101cea:	5d                   	pop    %ebp
  101ceb:	c3                   	ret    
namex(char *path, int nameiparent, char *name)
{
  struct inode *ip, *next;

  if(*path == '/')
    ip = iget(ROOTDEV, ROOTINO);
  101cec:	ba 01 00 00 00       	mov    $0x1,%edx
  101cf1:	b8 01 00 00 00       	mov    $0x1,%eax
  101cf6:	e8 15 f3 ff ff       	call   101010 <iget>
  101cfb:	89 45 f0             	mov    %eax,-0x10(%ebp)
  101cfe:	e9 f0 fe ff ff       	jmp    101bf3 <namex+0x33>
      iunlockput(ip);
      return 0;
    }
    if(nameiparent && *path == '\0'){
      // Stop one level early.
      iunlock(ip);
  101d03:	8b 45 f0             	mov    -0x10(%ebp),%eax
  101d06:	89 04 24             	mov    %eax,(%esp)
  101d09:	e8 92 f9 ff ff       	call   1016a0 <iunlock>
  if(nameiparent){
    iput(ip);
    return 0;
  }
  return ip;
}
  101d0e:	8b 45 f0             	mov    -0x10(%ebp),%eax
  101d11:	83 c4 1c             	add    $0x1c,%esp
  101d14:	5b                   	pop    %ebx
  101d15:	5e                   	pop    %esi
  101d16:	5f                   	pop    %edi
  101d17:	5d                   	pop    %ebp
  101d18:	c3                   	ret    
    }
    iunlockput(ip);
    ip = next;
  }
  if(nameiparent){
    iput(ip);
  101d19:	8b 45 f0             	mov    -0x10(%ebp),%eax
  101d1c:	89 04 24             	mov    %eax,(%esp)
  101d1f:	e8 4c fb ff ff       	call   101870 <iput>
  101d24:	c7 45 f0 00 00 00 00 	movl   $0x0,-0x10(%ebp)
  101d2b:	eb 97                	jmp    101cc4 <namex+0x104>
  101d2d:	8d 76 00             	lea    0x0(%esi),%esi

00101d30 <nameiparent>:
  return namex(path, 0, name);
}

struct inode*
nameiparent(char *path, char *name)
{
  101d30:	55                   	push   %ebp
  return namex(path, 1, name);
  101d31:	ba 01 00 00 00       	mov    $0x1,%edx
  return namex(path, 0, name);
}

struct inode*
nameiparent(char *path, char *name)
{
  101d36:	89 e5                	mov    %esp,%ebp
  101d38:	8b 45 08             	mov    0x8(%ebp),%eax
  101d3b:	8b 4d 0c             	mov    0xc(%ebp),%ecx
  return namex(path, 1, name);
}
  101d3e:	5d                   	pop    %ebp
}

struct inode*
nameiparent(char *path, char *name)
{
  return namex(path, 1, name);
  101d3f:	e9 7c fe ff ff       	jmp    101bc0 <namex>
  101d44:	8d b6 00 00 00 00    	lea    0x0(%esi),%esi
  101d4a:	8d bf 00 00 00 00    	lea    0x0(%edi),%edi

00101d50 <namei>:
  return ip;
}

struct inode*
namei(char *path)
{
  101d50:	55                   	push   %ebp
  char name[DIRSIZ];
  return namex(path, 0, name);
  101d51:	31 d2                	xor    %edx,%edx
  return ip;
}

struct inode*
namei(char *path)
{
  101d53:	89 e5                	mov    %esp,%ebp
  101d55:	83 ec 18             	sub    $0x18,%esp
  char name[DIRSIZ];
  return namex(path, 0, name);
  101d58:	8b 45 08             	mov    0x8(%ebp),%eax
  101d5b:	8d 4d f2             	lea    -0xe(%ebp),%ecx
  101d5e:	e8 5d fe ff ff       	call   101bc0 <namex>
}
  101d63:	c9                   	leave  
  101d64:	c3                   	ret    
  101d65:	8d 74 26 00          	lea    0x0(%esi),%esi
  101d69:	8d bc 27 00 00 00 00 	lea    0x0(%edi),%edi

00101d70 <iinit>:
  struct inode inode[NINODE];
} icache;

void
iinit(void)
{
  101d70:	55                   	push   %ebp
  101d71:	89 e5                	mov    %esp,%ebp
  101d73:	83 ec 08             	sub    $0x8,%esp
  initlock(&icache.lock, "icache");
  101d76:	c7 44 24 04 cf 62 10 	movl   $0x1062cf,0x4(%esp)
  101d7d:	00 
  101d7e:	c7 04 24 60 9a 10 00 	movl   $0x109a60,(%esp)
  101d85:	e8 06 1b 00 00       	call   103890 <initlock>
}
  101d8a:	c9                   	leave  
  101d8b:	c3                   	ret    
  101d8c:	90                   	nop    
  101d8d:	90                   	nop    
  101d8e:	90                   	nop    
  101d8f:	90                   	nop    

00101d90 <idewait>:
static void idestart(struct buf*);

// Wait for IDE disk to become ready.
static int
idewait(int checkerr)
{
  101d90:	55                   	push   %ebp
  101d91:	89 c1                	mov    %eax,%ecx
  101d93:	89 e5                	mov    %esp,%ebp
static inline uchar
inb(ushort port)
{
  uchar data;

  asm volatile("in %1,%0" : "=a" (data) : "d" (port));
  101d95:	ba f7 01 00 00       	mov    $0x1f7,%edx
  101d9a:	ec                   	in     (%dx),%al
  return data;
  101d9b:	0f b6 d0             	movzbl %al,%edx
  int r;

  while(((r = inb(0x1f7)) & (IDE_BSY|IDE_DRDY)) != IDE_DRDY) 
  101d9e:	89 d0                	mov    %edx,%eax
  101da0:	25 c0 00 00 00       	and    $0xc0,%eax
  101da5:	83 f8 40             	cmp    $0x40,%eax
  101da8:	75 eb                	jne    101d95 <idewait+0x5>
    ;
  if(checkerr && (r & (IDE_DF|IDE_ERR)) != 0)
  101daa:	85 c9                	test   %ecx,%ecx
  101dac:	74 0a                	je     101db8 <idewait+0x28>
  101dae:	83 e2 21             	and    $0x21,%edx
  101db1:	b8 ff ff ff ff       	mov    $0xffffffff,%eax
  101db6:	75 02                	jne    101dba <idewait+0x2a>
  101db8:	31 c0                	xor    %eax,%eax
    return -1;
  return 0;
}
  101dba:	5d                   	pop    %ebp
  101dbb:	c3                   	ret    
  101dbc:	8d 74 26 00          	lea    0x0(%esi),%esi

00101dc0 <idestart>:
}

// Start the request for b.  Caller must hold idelock.
static void
idestart(struct buf *b)
{
  101dc0:	55                   	push   %ebp
  101dc1:	89 e5                	mov    %esp,%ebp
  101dc3:	56                   	push   %esi
  101dc4:	89 c6                	mov    %eax,%esi
  101dc6:	53                   	push   %ebx
  101dc7:	83 ec 10             	sub    $0x10,%esp
  if(b == 0)
  101dca:	85 c0                	test   %eax,%eax
  101dcc:	0f 84 81 00 00 00    	je     101e53 <idestart+0x93>
    panic("idestart");

  idewait(0);
  101dd2:	31 c0                	xor    %eax,%eax
  101dd4:	e8 b7 ff ff ff       	call   101d90 <idewait>
}

static inline void
outb(ushort port, uchar data)
{
  asm volatile("out %0,%1" : : "a" (data), "d" (port));
  101dd9:	31 c0                	xor    %eax,%eax
  101ddb:	ba f6 03 00 00       	mov    $0x3f6,%edx
  101de0:	ee                   	out    %al,(%dx)
  outb(0x3f6, 0);  // generate interrupt
  outb(0x1f2, 1);  // number of sectors
  outb(0x1f3, b->sector & 0xff);
  101de1:	b8 01 00 00 00       	mov    $0x1,%eax
  101de6:	ba f2 01 00 00       	mov    $0x1f2,%edx
  101deb:	ee                   	out    %al,(%dx)
  101dec:	8b 46 08             	mov    0x8(%esi),%eax
  101def:	b2 f3                	mov    $0xf3,%dl
  101df1:	ee                   	out    %al,(%dx)
  outb(0x1f4, (b->sector >> 8) & 0xff);
  outb(0x1f5, (b->sector >> 16) & 0xff);
  outb(0x1f6, 0xe0 | ((b->dev&1)<<4) | ((b->sector>>24)&0x0f));
  if(b->flags & B_DIRTY){
  101df2:	c1 e8 08             	shr    $0x8,%eax
  101df5:	b2 f4                	mov    $0xf4,%dl
  101df7:	ee                   	out    %al,(%dx)
  101df8:	c1 e8 08             	shr    $0x8,%eax
  101dfb:	b2 f5                	mov    $0xf5,%dl
  101dfd:	ee                   	out    %al,(%dx)
  101dfe:	0f b6 4e 04          	movzbl 0x4(%esi),%ecx
  101e02:	c1 e8 08             	shr    $0x8,%eax
  101e05:	bb f6 01 00 00       	mov    $0x1f6,%ebx
  101e0a:	83 e0 0f             	and    $0xf,%eax
  101e0d:	89 da                	mov    %ebx,%edx
  101e0f:	83 e1 01             	and    $0x1,%ecx
  101e12:	c1 e1 04             	shl    $0x4,%ecx
  101e15:	09 c1                	or     %eax,%ecx
  101e17:	83 c9 e0             	or     $0xffffffe0,%ecx
  101e1a:	89 c8                	mov    %ecx,%eax
  101e1c:	ee                   	out    %al,(%dx)
  101e1d:	f6 06 04             	testb  $0x4,(%esi)
  101e20:	75 12                	jne    101e34 <idestart+0x74>
  101e22:	b8 20 00 00 00       	mov    $0x20,%eax
  101e27:	ba f7 01 00 00       	mov    $0x1f7,%edx
  101e2c:	ee                   	out    %al,(%dx)
    outb(0x1f7, IDE_CMD_WRITE);
    outsl(0x1f0, b->data, 512/4);
  } else {
    outb(0x1f7, IDE_CMD_READ);
  }
}
  101e2d:	83 c4 10             	add    $0x10,%esp
  101e30:	5b                   	pop    %ebx
  101e31:	5e                   	pop    %esi
  101e32:	5d                   	pop    %ebp
  101e33:	c3                   	ret    
  101e34:	b8 30 00 00 00       	mov    $0x30,%eax
  101e39:	b2 f7                	mov    $0xf7,%dl
  101e3b:	ee                   	out    %al,(%dx)
}

static inline void
outsl(int port, const void *addr, int cnt)
{
  asm volatile("cld; rep outsl" :
  101e3c:	ba f0 01 00 00       	mov    $0x1f0,%edx
}

static inline void
outb(ushort port, uchar data)
{
  asm volatile("out %0,%1" : : "a" (data), "d" (port));
  101e41:	83 c6 18             	add    $0x18,%esi
}

static inline void
outsl(int port, const void *addr, int cnt)
{
  asm volatile("cld; rep outsl" :
  101e44:	b9 80 00 00 00       	mov    $0x80,%ecx
  101e49:	fc                   	cld    
  101e4a:	f3 6f                	rep outsl %ds:(%esi),(%dx)
  101e4c:	83 c4 10             	add    $0x10,%esp
  101e4f:	5b                   	pop    %ebx
  101e50:	5e                   	pop    %esi
  101e51:	5d                   	pop    %ebp
  101e52:	c3                   	ret    
// Start the request for b.  Caller must hold idelock.
static void
idestart(struct buf *b)
{
  if(b == 0)
    panic("idestart");
  101e53:	c7 04 24 d6 62 10 00 	movl   $0x1062d6,(%esp)
  101e5a:	e8 21 ea ff ff       	call   100880 <panic>
  101e5f:	90                   	nop    

00101e60 <iderw>:
// Sync buf with disk. 
// If B_DIRTY is set, write buf to disk, clear B_DIRTY, set B_VALID.
// Else if B_VALID is not set, read buf from disk, set B_VALID.
void
iderw(struct buf *b)
{
  101e60:	55                   	push   %ebp
  101e61:	89 e5                	mov    %esp,%ebp
  101e63:	53                   	push   %ebx
  101e64:	83 ec 14             	sub    $0x14,%esp
  101e67:	8b 5d 08             	mov    0x8(%ebp),%ebx
  struct buf **pp;

  if(!(b->flags & B_BUSY))
  101e6a:	8b 03                	mov    (%ebx),%eax
  101e6c:	a8 01                	test   $0x1,%al
  101e6e:	0f 84 90 00 00 00    	je     101f04 <iderw+0xa4>
    panic("iderw: buf not busy");
  if((b->flags & (B_VALID|B_DIRTY)) == B_VALID)
  101e74:	83 e0 06             	and    $0x6,%eax
  101e77:	83 f8 02             	cmp    $0x2,%eax
  101e7a:	0f 84 90 00 00 00    	je     101f10 <iderw+0xb0>
    panic("iderw: nothing to do");
  if(b->dev != 0 && !havedisk1)
  101e80:	8b 53 04             	mov    0x4(%ebx),%edx
  101e83:	85 d2                	test   %edx,%edx
  101e85:	74 0d                	je     101e94 <iderw+0x34>
  101e87:	a1 38 78 10 00       	mov    0x107838,%eax
  101e8c:	85 c0                	test   %eax,%eax
  101e8e:	0f 84 88 00 00 00    	je     101f1c <iderw+0xbc>
    panic("idrw: ide disk 1 not present");

  acquire(&idelock);
  101e94:	c7 04 24 00 78 10 00 	movl   $0x107800,(%esp)
  101e9b:	e8 70 1b 00 00       	call   103a10 <acquire>

  // Append b to idequeue.
  b->qnext = 0;
  for(pp=&idequeue; *pp; pp=&(*pp)->qnext)
  101ea0:	ba 34 78 10 00       	mov    $0x107834,%edx
    panic("idrw: ide disk 1 not present");

  acquire(&idelock);

  // Append b to idequeue.
  b->qnext = 0;
  101ea5:	c7 43 14 00 00 00 00 	movl   $0x0,0x14(%ebx)
  for(pp=&idequeue; *pp; pp=&(*pp)->qnext)
  101eac:	a1 34 78 10 00       	mov    0x107834,%eax
  101eb1:	85 c0                	test   %eax,%eax
  101eb3:	74 0a                	je     101ebf <iderw+0x5f>
  101eb5:	8d 50 14             	lea    0x14(%eax),%edx
  101eb8:	8b 40 14             	mov    0x14(%eax),%eax
  101ebb:	85 c0                	test   %eax,%eax
  101ebd:	75 f6                	jne    101eb5 <iderw+0x55>
    ;
  *pp = b;
  101ebf:	89 1a                	mov    %ebx,(%edx)
  
  // Start disk if necessary.
  if(idequeue == b)
  101ec1:	39 1d 34 78 10 00    	cmp    %ebx,0x107834
  101ec7:	75 17                	jne    101ee0 <iderw+0x80>
  101ec9:	eb 30                	jmp    101efb <iderw+0x9b>
  101ecb:	90                   	nop    
  101ecc:	8d 74 26 00          	lea    0x0(%esi),%esi
    idestart(b);
  
  // Wait for request to finish.
  // Assuming will not sleep too long: ignore proc->killed.
  while((b->flags & (B_VALID|B_DIRTY)) != B_VALID) {
    sleep(b, &idelock);
  101ed0:	c7 44 24 04 00 78 10 	movl   $0x107800,0x4(%esp)
  101ed7:	00 
  101ed8:	89 1c 24             	mov    %ebx,(%esp)
  101edb:	e8 10 12 00 00       	call   1030f0 <sleep>
  if(idequeue == b)
    idestart(b);
  
  // Wait for request to finish.
  // Assuming will not sleep too long: ignore proc->killed.
  while((b->flags & (B_VALID|B_DIRTY)) != B_VALID) {
  101ee0:	8b 03                	mov    (%ebx),%eax
  101ee2:	83 e0 06             	and    $0x6,%eax
  101ee5:	83 f8 02             	cmp    $0x2,%eax
  101ee8:	75 e6                	jne    101ed0 <iderw+0x70>
    sleep(b, &idelock);
  }

  release(&idelock);
  101eea:	c7 45 08 00 78 10 00 	movl   $0x107800,0x8(%ebp)
}
  101ef1:	83 c4 14             	add    $0x14,%esp
  101ef4:	5b                   	pop    %ebx
  101ef5:	5d                   	pop    %ebp
  // Assuming will not sleep too long: ignore proc->killed.
  while((b->flags & (B_VALID|B_DIRTY)) != B_VALID) {
    sleep(b, &idelock);
  }

  release(&idelock);
  101ef6:	e9 d5 1a 00 00       	jmp    1039d0 <release>
    ;
  *pp = b;
  
  // Start disk if necessary.
  if(idequeue == b)
    idestart(b);
  101efb:	89 d8                	mov    %ebx,%eax
  101efd:	e8 be fe ff ff       	call   101dc0 <idestart>
  101f02:	eb dc                	jmp    101ee0 <iderw+0x80>
iderw(struct buf *b)
{
  struct buf **pp;

  if(!(b->flags & B_BUSY))
    panic("iderw: buf not busy");
  101f04:	c7 04 24 df 62 10 00 	movl   $0x1062df,(%esp)
  101f0b:	e8 70 e9 ff ff       	call   100880 <panic>
  if((b->flags & (B_VALID|B_DIRTY)) == B_VALID)
    panic("iderw: nothing to do");
  101f10:	c7 04 24 f3 62 10 00 	movl   $0x1062f3,(%esp)
  101f17:	e8 64 e9 ff ff       	call   100880 <panic>
  if(b->dev != 0 && !havedisk1)
    panic("idrw: ide disk 1 not present");
  101f1c:	c7 04 24 08 63 10 00 	movl   $0x106308,(%esp)
  101f23:	e8 58 e9 ff ff       	call   100880 <panic>
  101f28:	90                   	nop    
  101f29:	8d b4 26 00 00 00 00 	lea    0x0(%esi),%esi

00101f30 <ideintr>:
}

// Interrupt handler.
void
ideintr(void)
{
  101f30:	55                   	push   %ebp
  101f31:	89 e5                	mov    %esp,%ebp
  101f33:	57                   	push   %edi
  101f34:	53                   	push   %ebx
  101f35:	83 ec 10             	sub    $0x10,%esp
  struct buf *b;

  // Take first buffer off queue.
  acquire(&idelock);
  101f38:	c7 04 24 00 78 10 00 	movl   $0x107800,(%esp)
  101f3f:	e8 cc 1a 00 00       	call   103a10 <acquire>
  if((b = idequeue) == 0){
  101f44:	8b 1d 34 78 10 00    	mov    0x107834,%ebx
  101f4a:	85 db                	test   %ebx,%ebx
  101f4c:	74 62                	je     101fb0 <ideintr+0x80>
    release(&idelock);
    cprintf("Spurious IDE interrupt.\n");
    return;
  }
  idequeue = b->qnext;
  101f4e:	8b 43 14             	mov    0x14(%ebx),%eax
  101f51:	a3 34 78 10 00       	mov    %eax,0x107834

  // Read data if needed.
  if(!(b->flags & B_DIRTY) && idewait(1) >= 0)
  101f56:	f6 03 04             	testb  $0x4,(%ebx)
  101f59:	74 35                	je     101f90 <ideintr+0x60>
    insl(0x1f0, b->data, 512/4);
  
  // Wake process waiting for this buf.
  b->flags |= B_VALID;
  b->flags &= ~B_DIRTY;
  101f5b:	8b 03                	mov    (%ebx),%eax
  101f5d:	83 c8 02             	or     $0x2,%eax
  101f60:	83 e0 fb             	and    $0xfffffffb,%eax
  101f63:	89 03                	mov    %eax,(%ebx)
  wakeup(b);
  101f65:	89 1c 24             	mov    %ebx,(%esp)
  101f68:	e8 93 10 00 00       	call   103000 <wakeup>
  
  // Start disk on next buf in queue.
  if(idequeue != 0)
  101f6d:	a1 34 78 10 00       	mov    0x107834,%eax
  101f72:	85 c0                	test   %eax,%eax
  101f74:	74 05                	je     101f7b <ideintr+0x4b>
    idestart(idequeue);
  101f76:	e8 45 fe ff ff       	call   101dc0 <idestart>

  release(&idelock);
  101f7b:	c7 04 24 00 78 10 00 	movl   $0x107800,(%esp)
  101f82:	e8 49 1a 00 00       	call   1039d0 <release>
}
  101f87:	83 c4 10             	add    $0x10,%esp
  101f8a:	5b                   	pop    %ebx
  101f8b:	5f                   	pop    %edi
  101f8c:	5d                   	pop    %ebp
  101f8d:	c3                   	ret    
  101f8e:	66 90                	xchg   %ax,%ax
    return;
  }
  idequeue = b->qnext;

  // Read data if needed.
  if(!(b->flags & B_DIRTY) && idewait(1) >= 0)
  101f90:	b8 01 00 00 00       	mov    $0x1,%eax
  101f95:	e8 f6 fd ff ff       	call   101d90 <idewait>
  101f9a:	85 c0                	test   %eax,%eax
  101f9c:	78 bd                	js     101f5b <ideintr+0x2b>
  101f9e:	8d 7b 18             	lea    0x18(%ebx),%edi
}

static inline void
insl(int port, void *addr, int cnt)
{
  asm volatile("cld; rep insl" :
  101fa1:	ba f0 01 00 00       	mov    $0x1f0,%edx
  101fa6:	b9 80 00 00 00       	mov    $0x80,%ecx
  101fab:	fc                   	cld    
  101fac:	f3 6d                	rep insl (%dx),%es:(%edi)
  101fae:	eb ab                	jmp    101f5b <ideintr+0x2b>
  struct buf *b;

  // Take first buffer off queue.
  acquire(&idelock);
  if((b = idequeue) == 0){
    release(&idelock);
  101fb0:	c7 04 24 00 78 10 00 	movl   $0x107800,(%esp)
  101fb7:	e8 14 1a 00 00       	call   1039d0 <release>
    cprintf("Spurious IDE interrupt.\n");
  101fbc:	c7 04 24 25 63 10 00 	movl   $0x106325,(%esp)
  101fc3:	e8 f8 e4 ff ff       	call   1004c0 <cprintf>
  101fc8:	eb bd                	jmp    101f87 <ideintr+0x57>
  101fca:	8d b6 00 00 00 00    	lea    0x0(%esi),%esi

00101fd0 <ideinit>:
  return 0;
}

void
ideinit(void)
{
  101fd0:	55                   	push   %ebp
  101fd1:	89 e5                	mov    %esp,%ebp
  101fd3:	83 ec 08             	sub    $0x8,%esp
  int i;

  initlock(&idelock, "ide");
  101fd6:	c7 44 24 04 3e 63 10 	movl   $0x10633e,0x4(%esp)
  101fdd:	00 
  101fde:	c7 04 24 00 78 10 00 	movl   $0x107800,(%esp)
  101fe5:	e8 a6 18 00 00       	call   103890 <initlock>
  picenable(IRQ_IDE);
  101fea:	c7 04 24 0e 00 00 00 	movl   $0xe,(%esp)
  101ff1:	e8 0a 0b 00 00       	call   102b00 <picenable>
  ioapicenable(IRQ_IDE, ncpu - 1);
  101ff6:	a1 80 b0 10 00       	mov    0x10b080,%eax
  101ffb:	c7 04 24 0e 00 00 00 	movl   $0xe,(%esp)
  102002:	83 e8 01             	sub    $0x1,%eax
  102005:	89 44 24 04          	mov    %eax,0x4(%esp)
  102009:	e8 82 00 00 00       	call   102090 <ioapicenable>
  idewait(0);
  10200e:	31 c0                	xor    %eax,%eax
  102010:	e8 7b fd ff ff       	call   101d90 <idewait>
}

static inline void
outb(ushort port, uchar data)
{
  asm volatile("out %0,%1" : : "a" (data), "d" (port));
  102015:	b8 f0 ff ff ff       	mov    $0xfffffff0,%eax
  10201a:	ba f6 01 00 00       	mov    $0x1f6,%edx
  10201f:	ee                   	out    %al,(%dx)
  102020:	31 c9                	xor    %ecx,%ecx
  102022:	eb 0b                	jmp    10202f <ideinit+0x5f>
  
  // Check if disk 1 is present
  outb(0x1f6, 0xe0 | (1<<4));
  for(i=0; i<1000; i++){
  102024:	83 c1 01             	add    $0x1,%ecx
  102027:	81 f9 e8 03 00 00    	cmp    $0x3e8,%ecx
  10202d:	74 14                	je     102043 <ideinit+0x73>
static inline uchar
inb(ushort port)
{
  uchar data;

  asm volatile("in %1,%0" : "=a" (data) : "d" (port));
  10202f:	ba f7 01 00 00       	mov    $0x1f7,%edx
  102034:	ec                   	in     (%dx),%al
    if(inb(0x1f7) != 0){
  102035:	84 c0                	test   %al,%al
  102037:	74 eb                	je     102024 <ideinit+0x54>
      havedisk1 = 1;
  102039:	c7 05 38 78 10 00 01 	movl   $0x1,0x107838
  102040:	00 00 00 
}

static inline void
outb(ushort port, uchar data)
{
  asm volatile("out %0,%1" : : "a" (data), "d" (port));
  102043:	b8 e0 ff ff ff       	mov    $0xffffffe0,%eax
  102048:	ba f6 01 00 00       	mov    $0x1f6,%edx
  10204d:	ee                   	out    %al,(%dx)
    }
  }
  
  // Switch back to disk 0.
  outb(0x1f6, 0xe0 | (0<<4));
}
  10204e:	c9                   	leave  
  10204f:	c3                   	ret    

00102050 <ioapicread>:
};

static uint
ioapicread(int reg)
{
  ioapic->reg = reg;
  102050:	8b 15 34 aa 10 00    	mov    0x10aa34,%edx
  uint data;
};

static uint
ioapicread(int reg)
{
  102056:	55                   	push   %ebp
  102057:	89 e5                	mov    %esp,%ebp
  ioapic->reg = reg;
  102059:	89 02                	mov    %eax,(%edx)
  return ioapic->data;
  10205b:	a1 34 aa 10 00       	mov    0x10aa34,%eax
}
  102060:	5d                   	pop    %ebp

static uint
ioapicread(int reg)
{
  ioapic->reg = reg;
  return ioapic->data;
  102061:	8b 40 10             	mov    0x10(%eax),%eax
}
  102064:	c3                   	ret    
  102065:	8d 74 26 00          	lea    0x0(%esi),%esi
  102069:	8d bc 27 00 00 00 00 	lea    0x0(%edi),%edi

00102070 <ioapicwrite>:

static void
ioapicwrite(int reg, uint data)
{
  ioapic->reg = reg;
  102070:	8b 0d 34 aa 10 00    	mov    0x10aa34,%ecx
  return ioapic->data;
}

static void
ioapicwrite(int reg, uint data)
{
  102076:	55                   	push   %ebp
  102077:	89 e5                	mov    %esp,%ebp
  ioapic->reg = reg;
  102079:	89 01                	mov    %eax,(%ecx)
  ioapic->data = data;
  10207b:	a1 34 aa 10 00       	mov    0x10aa34,%eax
  102080:	89 50 10             	mov    %edx,0x10(%eax)
}
  102083:	5d                   	pop    %ebp
  102084:	c3                   	ret    
  102085:	8d 74 26 00          	lea    0x0(%esi),%esi
  102089:	8d bc 27 00 00 00 00 	lea    0x0(%edi),%edi

00102090 <ioapicenable>:
  }
}

void
ioapicenable(int irq, int cpunum)
{
  102090:	55                   	push   %ebp
  102091:	89 e5                	mov    %esp,%ebp
  102093:	83 ec 08             	sub    $0x8,%esp
  102096:	89 1c 24             	mov    %ebx,(%esp)
  102099:	89 74 24 04          	mov    %esi,0x4(%esp)
  if(!ismp)
  10209d:	8b 15 84 aa 10 00    	mov    0x10aa84,%edx
  }
}

void
ioapicenable(int irq, int cpunum)
{
  1020a3:	8b 45 08             	mov    0x8(%ebp),%eax
  1020a6:	8b 5d 0c             	mov    0xc(%ebp),%ebx
  if(!ismp)
  1020a9:	85 d2                	test   %edx,%edx
  1020ab:	75 0b                	jne    1020b8 <ioapicenable+0x28>
  // Mark interrupt edge-triggered, active high,
  // enabled, and routed to the given cpunum,
  // which happens to be that cpu's APIC ID.
  ioapicwrite(REG_TABLE+2*irq, T_IRQ0 + irq);
  ioapicwrite(REG_TABLE+2*irq+1, cpunum << 24);
}
  1020ad:	8b 1c 24             	mov    (%esp),%ebx
  1020b0:	8b 74 24 04          	mov    0x4(%esp),%esi
  1020b4:	89 ec                	mov    %ebp,%esp
  1020b6:	5d                   	pop    %ebp
  1020b7:	c3                   	ret    
    return;

  // Mark interrupt edge-triggered, active high,
  // enabled, and routed to the given cpunum,
  // which happens to be that cpu's APIC ID.
  ioapicwrite(REG_TABLE+2*irq, T_IRQ0 + irq);
  1020b8:	8d 34 00             	lea    (%eax,%eax,1),%esi
  1020bb:	8d 50 20             	lea    0x20(%eax),%edx
  ioapicwrite(REG_TABLE+2*irq+1, cpunum << 24);
  1020be:	c1 e3 18             	shl    $0x18,%ebx
    return;

  // Mark interrupt edge-triggered, active high,
  // enabled, and routed to the given cpunum,
  // which happens to be that cpu's APIC ID.
  ioapicwrite(REG_TABLE+2*irq, T_IRQ0 + irq);
  1020c1:	8d 46 10             	lea    0x10(%esi),%eax
  1020c4:	e8 a7 ff ff ff       	call   102070 <ioapicwrite>
  ioapicwrite(REG_TABLE+2*irq+1, cpunum << 24);
  1020c9:	8d 46 11             	lea    0x11(%esi),%eax
  1020cc:	89 da                	mov    %ebx,%edx
}
  1020ce:	8b 74 24 04          	mov    0x4(%esp),%esi
  1020d2:	8b 1c 24             	mov    (%esp),%ebx
  1020d5:	89 ec                	mov    %ebp,%esp
  1020d7:	5d                   	pop    %ebp

  // Mark interrupt edge-triggered, active high,
  // enabled, and routed to the given cpunum,
  // which happens to be that cpu's APIC ID.
  ioapicwrite(REG_TABLE+2*irq, T_IRQ0 + irq);
  ioapicwrite(REG_TABLE+2*irq+1, cpunum << 24);
  1020d8:	eb 96                	jmp    102070 <ioapicwrite>
  1020da:	8d b6 00 00 00 00    	lea    0x0(%esi),%esi

001020e0 <ioapicinit>:
  ioapic->data = data;
}

void
ioapicinit(void)
{
  1020e0:	55                   	push   %ebp
  1020e1:	89 e5                	mov    %esp,%ebp
  1020e3:	57                   	push   %edi
  1020e4:	56                   	push   %esi
  1020e5:	53                   	push   %ebx
  1020e6:	83 ec 0c             	sub    $0xc,%esp
  int i, id, maxintr;

  if(!ismp)
  1020e9:	8b 0d 84 aa 10 00    	mov    0x10aa84,%ecx
  1020ef:	85 c9                	test   %ecx,%ecx
  1020f1:	75 0d                	jne    102100 <ioapicinit+0x20>
  // and not routed to any CPUs.
  for(i = 0; i <= maxintr; i++){
    ioapicwrite(REG_TABLE+2*i, INT_DISABLED | (T_IRQ0 + i));
    ioapicwrite(REG_TABLE+2*i+1, 0);
  }
}
  1020f3:	83 c4 0c             	add    $0xc,%esp
  1020f6:	5b                   	pop    %ebx
  1020f7:	5e                   	pop    %esi
  1020f8:	5f                   	pop    %edi
  1020f9:	5d                   	pop    %ebp
  1020fa:	c3                   	ret    
  1020fb:	90                   	nop    
  1020fc:	8d 74 26 00          	lea    0x0(%esi),%esi

  if(!ismp)
    return;

  ioapic = (volatile struct ioapic*)IOAPIC;
  maxintr = (ioapicread(REG_VER) >> 16) & 0xFF;
  102100:	b8 01 00 00 00       	mov    $0x1,%eax
  int i, id, maxintr;

  if(!ismp)
    return;

  ioapic = (volatile struct ioapic*)IOAPIC;
  102105:	c7 05 34 aa 10 00 00 	movl   $0xfec00000,0x10aa34
  10210c:	00 c0 fe 
  maxintr = (ioapicread(REG_VER) >> 16) & 0xFF;
  10210f:	e8 3c ff ff ff       	call   102050 <ioapicread>
  102114:	c1 e8 10             	shr    $0x10,%eax
  102117:	0f b6 f8             	movzbl %al,%edi
  id = ioapicread(REG_ID) >> 24;
  10211a:	31 c0                	xor    %eax,%eax
  10211c:	e8 2f ff ff ff       	call   102050 <ioapicread>
  if(id != ioapicid)
  102121:	0f b6 15 80 aa 10 00 	movzbl 0x10aa80,%edx
  102128:	c1 e8 18             	shr    $0x18,%eax
  10212b:	39 c2                	cmp    %eax,%edx
  10212d:	74 0c                	je     10213b <ioapicinit+0x5b>
    cprintf("ioapicinit: id isn't equal to ioapicid; not a MP\n");
  10212f:	c7 04 24 44 63 10 00 	movl   $0x106344,(%esp)
  102136:	e8 85 e3 ff ff       	call   1004c0 <cprintf>
  10213b:	31 f6                	xor    %esi,%esi
  10213d:	bb 10 00 00 00       	mov    $0x10,%ebx

  // Mark all interrupts edge-triggered, active high, disabled,
  // and not routed to any CPUs.
  for(i = 0; i <= maxintr; i++){
    ioapicwrite(REG_TABLE+2*i, INT_DISABLED | (T_IRQ0 + i));
  102142:	8d 56 20             	lea    0x20(%esi),%edx
  102145:	89 d8                	mov    %ebx,%eax
  102147:	81 ca 00 00 01 00    	or     $0x10000,%edx
  if(id != ioapicid)
    cprintf("ioapicinit: id isn't equal to ioapicid; not a MP\n");

  // Mark all interrupts edge-triggered, active high, disabled,
  // and not routed to any CPUs.
  for(i = 0; i <= maxintr; i++){
  10214d:	83 c6 01             	add    $0x1,%esi
    ioapicwrite(REG_TABLE+2*i, INT_DISABLED | (T_IRQ0 + i));
  102150:	e8 1b ff ff ff       	call   102070 <ioapicwrite>
    ioapicwrite(REG_TABLE+2*i+1, 0);
  102155:	8d 43 01             	lea    0x1(%ebx),%eax
  102158:	31 d2                	xor    %edx,%edx
  10215a:	e8 11 ff ff ff       	call   102070 <ioapicwrite>
  if(id != ioapicid)
    cprintf("ioapicinit: id isn't equal to ioapicid; not a MP\n");

  // Mark all interrupts edge-triggered, active high, disabled,
  // and not routed to any CPUs.
  for(i = 0; i <= maxintr; i++){
  10215f:	83 c3 02             	add    $0x2,%ebx
  102162:	39 f7                	cmp    %esi,%edi
  102164:	7d dc                	jge    102142 <ioapicinit+0x62>
    ioapicwrite(REG_TABLE+2*i, INT_DISABLED | (T_IRQ0 + i));
    ioapicwrite(REG_TABLE+2*i+1, 0);
  }
}
  102166:	83 c4 0c             	add    $0xc,%esp
  102169:	5b                   	pop    %ebx
  10216a:	5e                   	pop    %esi
  10216b:	5f                   	pop    %edi
  10216c:	5d                   	pop    %ebp
  10216d:	c3                   	ret    
  10216e:	90                   	nop    
  10216f:	90                   	nop    

00102170 <sys_freepages>:
}

// Count the number of free physical pages.
int
sys_freepages()
{
  102170:	55                   	push   %ebp
  102171:	89 e5                	mov    %esp,%ebp
  102173:	53                   	push   %ebx
  struct run *r;
  int num = 0;

  acquire(&kmem.lock);
  for (r = kmem.freelist; r; r = r->next)
  102174:	31 db                	xor    %ebx,%ebx
}

// Count the number of free physical pages.
int
sys_freepages()
{
  102176:	83 ec 04             	sub    $0x4,%esp
  struct run *r;
  int num = 0;

  acquire(&kmem.lock);
  102179:	c7 04 24 40 aa 10 00 	movl   $0x10aa40,(%esp)
  102180:	e8 8b 18 00 00       	call   103a10 <acquire>
  for (r = kmem.freelist; r; r = r->next)
  102185:	a1 74 aa 10 00       	mov    0x10aa74,%eax
  10218a:	85 c0                	test   %eax,%eax
  10218c:	74 0b                	je     102199 <sys_freepages+0x29>
  10218e:	66 90                	xchg   %ax,%ax
  102190:	8b 00                	mov    (%eax),%eax
    ++num;
  102192:	83 c3 01             	add    $0x1,%ebx
{
  struct run *r;
  int num = 0;

  acquire(&kmem.lock);
  for (r = kmem.freelist; r; r = r->next)
  102195:	85 c0                	test   %eax,%eax
  102197:	75 f7                	jne    102190 <sys_freepages+0x20>
    ++num;
  release(&kmem.lock);
  102199:	c7 04 24 40 aa 10 00 	movl   $0x10aa40,(%esp)
  1021a0:	e8 2b 18 00 00       	call   1039d0 <release>

  return num;
}
  1021a5:	89 d8                	mov    %ebx,%eax
  1021a7:	83 c4 04             	add    $0x4,%esp
  1021aa:	5b                   	pop    %ebx
  1021ab:	5d                   	pop    %ebp
  1021ac:	c3                   	ret    
  1021ad:	8d 76 00             	lea    0x0(%esi),%esi

001021b0 <kalloc>:
// Allocate one 4096-byte page of physical memory.
// Returns a pointer that the kernel can use.
// Returns 0 if the memory cannot be allocated.
char*
kalloc()
{
  1021b0:	55                   	push   %ebp
  1021b1:	89 e5                	mov    %esp,%ebp
  1021b3:	53                   	push   %ebx
  1021b4:	83 ec 04             	sub    $0x4,%esp
  struct run *r;

  acquire(&kmem.lock);
  1021b7:	c7 04 24 40 aa 10 00 	movl   $0x10aa40,(%esp)
  1021be:	e8 4d 18 00 00       	call   103a10 <acquire>
  r = kmem.freelist;
  1021c3:	8b 1d 74 aa 10 00    	mov    0x10aa74,%ebx
  if(r)
  1021c9:	85 db                	test   %ebx,%ebx
  1021cb:	74 07                	je     1021d4 <kalloc+0x24>
    kmem.freelist = r->next;
  1021cd:	8b 03                	mov    (%ebx),%eax
  1021cf:	a3 74 aa 10 00       	mov    %eax,0x10aa74
  release(&kmem.lock);
  1021d4:	c7 04 24 40 aa 10 00 	movl   $0x10aa40,(%esp)
  1021db:	e8 f0 17 00 00       	call   1039d0 <release>
  return (char*) r;
}
  1021e0:	89 d8                	mov    %ebx,%eax
  1021e2:	83 c4 04             	add    $0x4,%esp
  1021e5:	5b                   	pop    %ebx
  1021e6:	5d                   	pop    %ebp
  1021e7:	c3                   	ret    
  1021e8:	90                   	nop    
  1021e9:	8d b4 26 00 00 00 00 	lea    0x0(%esi),%esi

001021f0 <kfree>:
// which normally should have been returned by a
// call to kalloc().  (The exception is when
// initializing the allocator; see kinit above.)
void
kfree(char *v)
{
  1021f0:	55                   	push   %ebp
  1021f1:	89 e5                	mov    %esp,%ebp
  1021f3:	53                   	push   %ebx
  1021f4:	83 ec 14             	sub    $0x14,%esp
  1021f7:	8b 5d 08             	mov    0x8(%ebp),%ebx
  struct run *r;

  if(((uint) v) % PGSIZE || (uint)v < 1024*1024 || (uint)v >= PHYSTOP) 
  1021fa:	f7 c3 ff 0f 00 00    	test   $0xfff,%ebx
  102200:	75 10                	jne    102212 <kfree+0x22>
  102202:	81 fb ff ff 0f 00    	cmp    $0xfffff,%ebx
  102208:	76 08                	jbe    102212 <kfree+0x22>
  10220a:	81 fb ff ff ff 00    	cmp    $0xffffff,%ebx
  102210:	76 0e                	jbe    102220 <kfree+0x30>
    panic("kfree");
  102212:	c7 04 24 76 63 10 00 	movl   $0x106376,(%esp)
  102219:	e8 62 e6 ff ff       	call   100880 <panic>
  10221e:	66 90                	xchg   %ax,%ax

  // Fill with junk to catch dangling refs.
  memset(v, 1, PGSIZE);
  102220:	89 1c 24             	mov    %ebx,(%esp)
  102223:	c7 44 24 08 00 10 00 	movl   $0x1000,0x8(%esp)
  10222a:	00 
  10222b:	c7 44 24 04 01 00 00 	movl   $0x1,0x4(%esp)
  102232:	00 
  102233:	e8 48 18 00 00       	call   103a80 <memset>

  acquire(&kmem.lock);
  102238:	c7 04 24 40 aa 10 00 	movl   $0x10aa40,(%esp)
  10223f:	e8 cc 17 00 00       	call   103a10 <acquire>
  r = (struct run *) v;
  r->next = kmem.freelist;
  102244:	a1 74 aa 10 00       	mov    0x10aa74,%eax
  102249:	89 03                	mov    %eax,(%ebx)
  kmem.freelist = r;
  10224b:	89 1d 74 aa 10 00    	mov    %ebx,0x10aa74
  release(&kmem.lock);
  102251:	c7 45 08 40 aa 10 00 	movl   $0x10aa40,0x8(%ebp)
}
  102258:	83 c4 14             	add    $0x14,%esp
  10225b:	5b                   	pop    %ebx
  10225c:	5d                   	pop    %ebp

  acquire(&kmem.lock);
  r = (struct run *) v;
  r->next = kmem.freelist;
  kmem.freelist = r;
  release(&kmem.lock);
  10225d:	e9 6e 17 00 00       	jmp    1039d0 <release>
  102262:	8d b4 26 00 00 00 00 	lea    0x0(%esi),%esi
  102269:	8d bc 27 00 00 00 00 	lea    0x0(%edi),%edi

00102270 <kinit>:
} kmem;

// Initialize free list of physical pages.
void
kinit(void)
{
  102270:	55                   	push   %ebp
  102271:	89 e5                	mov    %esp,%ebp
  102273:	53                   	push   %ebx
  extern char end[];

  initlock(&kmem.lock, "kmem");
  char *p = (char*)PGROUNDUP((uint)end);
  102274:	bb 23 e8 10 00       	mov    $0x10e823,%ebx
} kmem;

// Initialize free list of physical pages.
void
kinit(void)
{
  102279:	83 ec 14             	sub    $0x14,%esp
  extern char end[];

  initlock(&kmem.lock, "kmem");
  char *p = (char*)PGROUNDUP((uint)end);
  10227c:	81 e3 00 f0 ff ff    	and    $0xfffff000,%ebx
void
kinit(void)
{
  extern char end[];

  initlock(&kmem.lock, "kmem");
  102282:	c7 44 24 04 7c 63 10 	movl   $0x10637c,0x4(%esp)
  102289:	00 
  10228a:	c7 04 24 40 aa 10 00 	movl   $0x10aa40,(%esp)
  102291:	e8 fa 15 00 00       	call   103890 <initlock>
  char *p = (char*)PGROUNDUP((uint)end);
  for( ; p + PGSIZE - 1 < (char*) PHYSTOP; p += PGSIZE)
  102296:	8d 83 ff 0f 00 00    	lea    0xfff(%ebx),%eax
  10229c:	3d ff ff ff 00       	cmp    $0xffffff,%eax
  1022a1:	77 1b                	ja     1022be <kinit+0x4e>
    kfree(p);
  1022a3:	89 1c 24             	mov    %ebx,(%esp)
{
  extern char end[];

  initlock(&kmem.lock, "kmem");
  char *p = (char*)PGROUNDUP((uint)end);
  for( ; p + PGSIZE - 1 < (char*) PHYSTOP; p += PGSIZE)
  1022a6:	81 c3 00 10 00 00    	add    $0x1000,%ebx
    kfree(p);
  1022ac:	e8 3f ff ff ff       	call   1021f0 <kfree>
{
  extern char end[];

  initlock(&kmem.lock, "kmem");
  char *p = (char*)PGROUNDUP((uint)end);
  for( ; p + PGSIZE - 1 < (char*) PHYSTOP; p += PGSIZE)
  1022b1:	8d 83 ff 0f 00 00    	lea    0xfff(%ebx),%eax
  1022b7:	3d ff ff ff 00       	cmp    $0xffffff,%eax
  1022bc:	76 e5                	jbe    1022a3 <kinit+0x33>
    kfree(p);
}
  1022be:	83 c4 14             	add    $0x14,%esp
  1022c1:	5b                   	pop    %ebx
  1022c2:	5d                   	pop    %ebp
  1022c3:	c3                   	ret    
  1022c4:	90                   	nop    
  1022c5:	90                   	nop    
  1022c6:	90                   	nop    
  1022c7:	90                   	nop    
  1022c8:	90                   	nop    
  1022c9:	90                   	nop    
  1022ca:	90                   	nop    
  1022cb:	90                   	nop    
  1022cc:	90                   	nop    
  1022cd:	90                   	nop    
  1022ce:	90                   	nop    
  1022cf:	90                   	nop    

001022d0 <kbdintr>:
  return c;
}

void
kbdintr(void)
{
  1022d0:	55                   	push   %ebp
  1022d1:	89 e5                	mov    %esp,%ebp
  1022d3:	83 ec 08             	sub    $0x8,%esp
  consoleintr(kbdgetc);
  1022d6:	c7 04 24 f0 22 10 00 	movl   $0x1022f0,(%esp)
  1022dd:	e8 1e e4 ff ff       	call   100700 <consoleintr>
}
  1022e2:	c9                   	leave  
  1022e3:	c3                   	ret    
  1022e4:	8d b6 00 00 00 00    	lea    0x0(%esi),%esi
  1022ea:	8d bf 00 00 00 00    	lea    0x0(%edi),%edi

001022f0 <kbdgetc>:
#include "defs.h"
#include "kbd.h"

int
kbdgetc(void)
{
  1022f0:	55                   	push   %ebp
static inline uchar
inb(ushort port)
{
  uchar data;

  asm volatile("in %1,%0" : "=a" (data) : "d" (port));
  1022f1:	ba 64 00 00 00       	mov    $0x64,%edx
  1022f6:	89 e5                	mov    %esp,%ebp
  1022f8:	ec                   	in     (%dx),%al
    normalmap, shiftmap, ctlmap, ctlmap
  };
  uint st, data, c;

  st = inb(KBSTATP);
  if((st & KBS_DIB) == 0)
  1022f9:	a8 01                	test   $0x1,%al
  1022fb:	ba ff ff ff ff       	mov    $0xffffffff,%edx
  102300:	74 3e                	je     102340 <kbdgetc+0x50>
  102302:	ba 60 00 00 00       	mov    $0x60,%edx
  102307:	ec                   	in     (%dx),%al
    return -1;
  data = inb(KBDATAP);

  if(data == 0xE0){
  102308:	3c e0                	cmp    $0xe0,%al
  10230a:	0f 84 84 00 00 00    	je     102394 <kbdgetc+0xa4>
  uint st, data, c;

  st = inb(KBSTATP);
  if((st & KBS_DIB) == 0)
    return -1;
  data = inb(KBDATAP);
  102310:	0f b6 c8             	movzbl %al,%ecx

  if(data == 0xE0){
    shift |= E0ESC;
    return 0;
  } else if(data & 0x80){
  102313:	84 c9                	test   %cl,%cl
  102315:	79 2d                	jns    102344 <kbdgetc+0x54>
    // Key released
    data = (shift & E0ESC ? data : data & 0x7F);
  102317:	8b 15 3c 78 10 00    	mov    0x10783c,%edx
  10231d:	f6 c2 40             	test   $0x40,%dl
  102320:	75 03                	jne    102325 <kbdgetc+0x35>
  102322:	83 e1 7f             	and    $0x7f,%ecx
    shift &= ~(shiftcode[data] | E0ESC);
  102325:	0f b6 81 a0 63 10 00 	movzbl 0x1063a0(%ecx),%eax
  10232c:	83 c8 40             	or     $0x40,%eax
  10232f:	0f b6 c0             	movzbl %al,%eax
  102332:	f7 d0                	not    %eax
  102334:	21 d0                	and    %edx,%eax
  102336:	31 d2                	xor    %edx,%edx
  102338:	a3 3c 78 10 00       	mov    %eax,0x10783c
  10233d:	8d 76 00             	lea    0x0(%esi),%esi
      c += 'A' - 'a';
    else if('A' <= c && c <= 'Z')
      c += 'a' - 'A';
  }
  return c;
}
  102340:	5d                   	pop    %ebp
  102341:	89 d0                	mov    %edx,%eax
  102343:	c3                   	ret    
  } else if(data & 0x80){
    // Key released
    data = (shift & E0ESC ? data : data & 0x7F);
    shift &= ~(shiftcode[data] | E0ESC);
    return 0;
  } else if(shift & E0ESC){
  102344:	a1 3c 78 10 00       	mov    0x10783c,%eax
  102349:	a8 40                	test   $0x40,%al
  10234b:	74 0b                	je     102358 <kbdgetc+0x68>
    // Last character was an E0 escape; or with 0x80
    data |= 0x80;
    shift &= ~E0ESC;
  10234d:	83 e0 bf             	and    $0xffffffbf,%eax
    data = (shift & E0ESC ? data : data & 0x7F);
    shift &= ~(shiftcode[data] | E0ESC);
    return 0;
  } else if(shift & E0ESC){
    // Last character was an E0 escape; or with 0x80
    data |= 0x80;
  102350:	80 c9 80             	or     $0x80,%cl
    shift &= ~E0ESC;
  102353:	a3 3c 78 10 00       	mov    %eax,0x10783c
  }

  shift |= shiftcode[data];
  shift ^= togglecode[data];
  102358:	0f b6 91 a0 64 10 00 	movzbl 0x1064a0(%ecx),%edx
  10235f:	0f b6 81 a0 63 10 00 	movzbl 0x1063a0(%ecx),%eax
  102366:	0b 05 3c 78 10 00    	or     0x10783c,%eax
  10236c:	31 d0                	xor    %edx,%eax
  c = charcode[shift & (CTL | SHIFT)][data];
  10236e:	89 c2                	mov    %eax,%edx
  102370:	83 e2 03             	and    $0x3,%edx
  if(shift & CAPSLOCK){
  102373:	a8 08                	test   $0x8,%al
    shift &= ~E0ESC;
  }

  shift |= shiftcode[data];
  shift ^= togglecode[data];
  c = charcode[shift & (CTL | SHIFT)][data];
  102375:	8b 14 95 a0 65 10 00 	mov    0x1065a0(,%edx,4),%edx
    data |= 0x80;
    shift &= ~E0ESC;
  }

  shift |= shiftcode[data];
  shift ^= togglecode[data];
  10237c:	a3 3c 78 10 00       	mov    %eax,0x10783c
  c = charcode[shift & (CTL | SHIFT)][data];
  102381:	0f b6 14 0a          	movzbl (%edx,%ecx,1),%edx
  if(shift & CAPSLOCK){
  102385:	74 b9                	je     102340 <kbdgetc+0x50>
    if('a' <= c && c <= 'z')
  102387:	8d 42 9f             	lea    -0x61(%edx),%eax
  10238a:	83 f8 19             	cmp    $0x19,%eax
  10238d:	77 12                	ja     1023a1 <kbdgetc+0xb1>
      c += 'A' - 'a';
  10238f:	83 ea 20             	sub    $0x20,%edx
  102392:	eb ac                	jmp    102340 <kbdgetc+0x50>
  if((st & KBS_DIB) == 0)
    return -1;
  data = inb(KBDATAP);

  if(data == 0xE0){
    shift |= E0ESC;
  102394:	83 0d 3c 78 10 00 40 	orl    $0x40,0x10783c
  10239b:	31 d2                	xor    %edx,%edx
      c += 'A' - 'a';
    else if('A' <= c && c <= 'Z')
      c += 'a' - 'A';
  }
  return c;
}
  10239d:	5d                   	pop    %ebp
  10239e:	89 d0                	mov    %edx,%eax
  1023a0:	c3                   	ret    
  shift ^= togglecode[data];
  c = charcode[shift & (CTL | SHIFT)][data];
  if(shift & CAPSLOCK){
    if('a' <= c && c <= 'z')
      c += 'A' - 'a';
    else if('A' <= c && c <= 'Z')
  1023a1:	8d 42 bf             	lea    -0x41(%edx),%eax
  1023a4:	83 f8 19             	cmp    $0x19,%eax
  1023a7:	77 97                	ja     102340 <kbdgetc+0x50>
      c += 'a' - 'A';
  1023a9:	83 c2 20             	add    $0x20,%edx
  1023ac:	eb 92                	jmp    102340 <kbdgetc+0x50>
  1023ae:	90                   	nop    
  1023af:	90                   	nop    

001023b0 <lapicw>:
volatile uint *lapic;  // Initialized in mp.c

static void
lapicw(int index, int value)
{
  lapic[index] = value;
  1023b0:	c1 e0 02             	shl    $0x2,%eax
  1023b3:	03 05 78 aa 10 00    	add    0x10aa78,%eax

volatile uint *lapic;  // Initialized in mp.c

static void
lapicw(int index, int value)
{
  1023b9:	55                   	push   %ebp
  1023ba:	89 e5                	mov    %esp,%ebp
  lapic[index] = value;
  1023bc:	89 10                	mov    %edx,(%eax)
  lapic[ID];  // wait for write to finish, by reading
  1023be:	a1 78 aa 10 00       	mov    0x10aa78,%eax
}
  1023c3:	5d                   	pop    %ebp

static void
lapicw(int index, int value)
{
  lapic[index] = value;
  lapic[ID];  // wait for write to finish, by reading
  1023c4:	83 c0 20             	add    $0x20,%eax
  1023c7:	8b 00                	mov    (%eax),%eax
}
  1023c9:	c3                   	ret    
  1023ca:	8d b6 00 00 00 00    	lea    0x0(%esi),%esi

001023d0 <lapiceoi>:

// Acknowledge interrupt.
void
lapiceoi(void)
{
  if(lapic)
  1023d0:	a1 78 aa 10 00       	mov    0x10aa78,%eax
}

// Acknowledge interrupt.
void
lapiceoi(void)
{
  1023d5:	55                   	push   %ebp
  1023d6:	89 e5                	mov    %esp,%ebp
  if(lapic)
  1023d8:	85 c0                	test   %eax,%eax
  1023da:	74 0a                	je     1023e6 <lapiceoi+0x16>
    lapicw(EOI, 0);
}
  1023dc:	5d                   	pop    %ebp
// Acknowledge interrupt.
void
lapiceoi(void)
{
  if(lapic)
    lapicw(EOI, 0);
  1023dd:	31 d2                	xor    %edx,%edx
  1023df:	b8 2c 00 00 00       	mov    $0x2c,%eax
  1023e4:	eb ca                	jmp    1023b0 <lapicw>
}
  1023e6:	5d                   	pop    %ebp
  1023e7:	c3                   	ret    
  1023e8:	90                   	nop    
  1023e9:	8d b4 26 00 00 00 00 	lea    0x0(%esi),%esi

001023f0 <microdelay>:

// Spin for a given number of microseconds.
// On real hardware would want to tune this dynamically.
void
microdelay(int us)
{
  1023f0:	55                   	push   %ebp
  1023f1:	89 e5                	mov    %esp,%ebp
}
  1023f3:	5d                   	pop    %ebp
  1023f4:	c3                   	ret    
  1023f5:	8d 74 26 00          	lea    0x0(%esi),%esi
  1023f9:	8d bc 27 00 00 00 00 	lea    0x0(%edi),%edi

00102400 <cpunum>:
  lapicw(TPR, 0);
}

int
cpunum(void)
{
  102400:	55                   	push   %ebp
  102401:	89 e5                	mov    %esp,%ebp
  102403:	83 ec 08             	sub    $0x8,%esp

static inline uint
readeflags(void)
{
  uint eflags;
  asm volatile("pushfl; popl %0" : "=r" (eflags));
  102406:	9c                   	pushf  
  102407:	58                   	pop    %eax
  // Cannot call cpu when interrupts are enabled:
  // result not guaranteed to last long enough to be used!
  // Would prefer to panic but even printing is chancy here:
  // almost everything, including cprintf and panic, calls cpu,
  // often indirectly through acquire and release.
  if(readeflags()&FL_IF){
  102408:	f6 c4 02             	test   $0x2,%ah
  10240b:	74 12                	je     10241f <cpunum+0x1f>
    static int n;
    if(n++ == 0)
  10240d:	a1 40 78 10 00       	mov    0x107840,%eax
  102412:	83 c0 01             	add    $0x1,%eax
  102415:	a3 40 78 10 00       	mov    %eax,0x107840
  10241a:	83 e8 01             	sub    $0x1,%eax
  10241d:	74 14                	je     102433 <cpunum+0x33>
      cprintf("cpu called from %x with interrupts enabled\n",
        __builtin_return_address(0));
  }

  if(lapic)
  10241f:	8b 15 78 aa 10 00    	mov    0x10aa78,%edx
  102425:	31 c0                	xor    %eax,%eax
  102427:	85 d2                	test   %edx,%edx
  102429:	74 06                	je     102431 <cpunum+0x31>
    return lapic[ID]>>24;
  10242b:	8b 42 20             	mov    0x20(%edx),%eax
  10242e:	c1 e8 18             	shr    $0x18,%eax
  return 0;
}
  102431:	c9                   	leave  
  102432:	c3                   	ret    
  // almost everything, including cprintf and panic, calls cpu,
  // often indirectly through acquire and release.
  if(readeflags()&FL_IF){
    static int n;
    if(n++ == 0)
      cprintf("cpu called from %x with interrupts enabled\n",
  102433:	8b 45 04             	mov    0x4(%ebp),%eax
  102436:	c7 04 24 b0 65 10 00 	movl   $0x1065b0,(%esp)
  10243d:	89 44 24 04          	mov    %eax,0x4(%esp)
  102441:	e8 7a e0 ff ff       	call   1004c0 <cprintf>
  102446:	eb d7                	jmp    10241f <cpunum+0x1f>
  102448:	90                   	nop    
  102449:	8d b4 26 00 00 00 00 	lea    0x0(%esi),%esi

00102450 <lapicinit>:
  lapic[ID];  // wait for write to finish, by reading
}

void
lapicinit(int c)
{
  102450:	55                   	push   %ebp
  102451:	89 e5                	mov    %esp,%ebp
  102453:	83 ec 18             	sub    $0x18,%esp
  cprintf("lapicinit: %d 0x%x\n", c, lapic);
  102456:	a1 78 aa 10 00       	mov    0x10aa78,%eax
  10245b:	89 44 24 08          	mov    %eax,0x8(%esp)
  10245f:	8b 45 08             	mov    0x8(%ebp),%eax
  102462:	c7 04 24 dc 65 10 00 	movl   $0x1065dc,(%esp)
  102469:	89 44 24 04          	mov    %eax,0x4(%esp)
  10246d:	e8 4e e0 ff ff       	call   1004c0 <cprintf>
  if(!lapic) 
  102472:	8b 15 78 aa 10 00    	mov    0x10aa78,%edx
  102478:	85 d2                	test   %edx,%edx
  10247a:	0f 84 ea 00 00 00    	je     10256a <lapicinit+0x11a>
    return;

  // Enable local APIC; set spurious interrupt vector.
  lapicw(SVR, ENABLE | (T_IRQ0 + IRQ_SPURIOUS));
  102480:	ba 3f 01 00 00       	mov    $0x13f,%edx
  102485:	b8 3c 00 00 00       	mov    $0x3c,%eax
  10248a:	e8 21 ff ff ff       	call   1023b0 <lapicw>

  // The timer repeatedly counts down at bus frequency
  // from lapic[TICR] and then issues an interrupt.  
  // If xv6 cared more about precise timekeeping,
  // TICR would be calibrated using an external time source.
  lapicw(TDCR, X1);
  10248f:	ba 0b 00 00 00       	mov    $0xb,%edx
  102494:	b8 f8 00 00 00       	mov    $0xf8,%eax
  102499:	e8 12 ff ff ff       	call   1023b0 <lapicw>
  lapicw(TIMER, PERIODIC | (T_IRQ0 + IRQ_TIMER));
  10249e:	ba 20 00 02 00       	mov    $0x20020,%edx
  1024a3:	b8 c8 00 00 00       	mov    $0xc8,%eax
  1024a8:	e8 03 ff ff ff       	call   1023b0 <lapicw>
  lapicw(TICR, 10000000); 
  1024ad:	ba 80 96 98 00       	mov    $0x989680,%edx
  1024b2:	b8 e0 00 00 00       	mov    $0xe0,%eax
  1024b7:	e8 f4 fe ff ff       	call   1023b0 <lapicw>

  // Disable logical interrupt lines.
  lapicw(LINT0, MASKED);
  1024bc:	ba 00 00 01 00       	mov    $0x10000,%edx
  1024c1:	b8 d4 00 00 00       	mov    $0xd4,%eax
  1024c6:	e8 e5 fe ff ff       	call   1023b0 <lapicw>
  lapicw(LINT1, MASKED);
  1024cb:	b8 d8 00 00 00       	mov    $0xd8,%eax
  1024d0:	ba 00 00 01 00       	mov    $0x10000,%edx
  1024d5:	e8 d6 fe ff ff       	call   1023b0 <lapicw>

  // Disable performance counter overflow interrupts
  // on machines that provide that interrupt entry.
  if(((lapic[VER]>>16) & 0xFF) >= 4)
  1024da:	a1 78 aa 10 00       	mov    0x10aa78,%eax
  1024df:	83 c0 30             	add    $0x30,%eax
  1024e2:	8b 00                	mov    (%eax),%eax
  1024e4:	c1 e8 10             	shr    $0x10,%eax
  1024e7:	3c 03                	cmp    $0x3,%al
  1024e9:	77 6e                	ja     102559 <lapicinit+0x109>
    lapicw(PCINT, MASKED);

  // Map error interrupt to IRQ_ERROR.
  lapicw(ERROR, T_IRQ0 + IRQ_ERROR);
  1024eb:	ba 33 00 00 00       	mov    $0x33,%edx
  1024f0:	b8 dc 00 00 00       	mov    $0xdc,%eax
  1024f5:	e8 b6 fe ff ff       	call   1023b0 <lapicw>

  // Clear error status register (requires back-to-back writes).
  lapicw(ESR, 0);
  1024fa:	31 d2                	xor    %edx,%edx
  1024fc:	b8 a0 00 00 00       	mov    $0xa0,%eax
  102501:	e8 aa fe ff ff       	call   1023b0 <lapicw>
  lapicw(ESR, 0);
  102506:	31 d2                	xor    %edx,%edx
  102508:	b8 a0 00 00 00       	mov    $0xa0,%eax
  10250d:	e8 9e fe ff ff       	call   1023b0 <lapicw>

  // Ack any outstanding interrupts.
  lapicw(EOI, 0);
  102512:	31 d2                	xor    %edx,%edx
  102514:	b8 2c 00 00 00       	mov    $0x2c,%eax
  102519:	e8 92 fe ff ff       	call   1023b0 <lapicw>

  // Send an Init Level De-Assert to synchronise arbitration ID's.
  lapicw(ICRHI, 0);
  10251e:	31 d2                	xor    %edx,%edx
  102520:	b8 c4 00 00 00       	mov    $0xc4,%eax
  102525:	e8 86 fe ff ff       	call   1023b0 <lapicw>
  lapicw(ICRLO, BCAST | INIT | LEVEL);
  10252a:	ba 00 85 08 00       	mov    $0x88500,%edx
  10252f:	b8 c0 00 00 00       	mov    $0xc0,%eax
  102534:	e8 77 fe ff ff       	call   1023b0 <lapicw>
  while(lapic[ICRLO] & DELIVS)
  102539:	8b 15 78 aa 10 00    	mov    0x10aa78,%edx
  10253f:	81 c2 00 03 00 00    	add    $0x300,%edx
  102545:	8b 02                	mov    (%edx),%eax
  102547:	f6 c4 10             	test   $0x10,%ah
  10254a:	75 f9                	jne    102545 <lapicinit+0xf5>
    ;

  // Enable interrupts on the APIC (but not on the processor).
  lapicw(TPR, 0);
}
  10254c:	c9                   	leave  
  lapicw(ICRLO, BCAST | INIT | LEVEL);
  while(lapic[ICRLO] & DELIVS)
    ;

  // Enable interrupts on the APIC (but not on the processor).
  lapicw(TPR, 0);
  10254d:	31 d2                	xor    %edx,%edx
  10254f:	b8 20 00 00 00       	mov    $0x20,%eax
  102554:	e9 57 fe ff ff       	jmp    1023b0 <lapicw>
  lapicw(LINT1, MASKED);

  // Disable performance counter overflow interrupts
  // on machines that provide that interrupt entry.
  if(((lapic[VER]>>16) & 0xFF) >= 4)
    lapicw(PCINT, MASKED);
  102559:	ba 00 00 01 00       	mov    $0x10000,%edx
  10255e:	b8 d0 00 00 00       	mov    $0xd0,%eax
  102563:	e8 48 fe ff ff       	call   1023b0 <lapicw>
  102568:	eb 81                	jmp    1024eb <lapicinit+0x9b>
  while(lapic[ICRLO] & DELIVS)
    ;

  // Enable interrupts on the APIC (but not on the processor).
  lapicw(TPR, 0);
}
  10256a:	c9                   	leave  
  10256b:	c3                   	ret    
  10256c:	8d 74 26 00          	lea    0x0(%esi),%esi

00102570 <lapicstartap>:

// Start additional processor running bootstrap code at addr.
// See Appendix B of MultiProcessor Specification.
void
lapicstartap(uchar apicid, uint addr)
{
  102570:	55                   	push   %ebp
}

static inline void
outb(ushort port, uchar data)
{
  asm volatile("out %0,%1" : : "a" (data), "d" (port));
  102571:	b8 0f 00 00 00       	mov    $0xf,%eax
  102576:	89 e5                	mov    %esp,%ebp
  102578:	ba 70 00 00 00       	mov    $0x70,%edx
  10257d:	56                   	push   %esi
  10257e:	53                   	push   %ebx
  10257f:	8b 75 0c             	mov    0xc(%ebp),%esi
  102582:	0f b6 5d 08          	movzbl 0x8(%ebp),%ebx
  102586:	ee                   	out    %al,(%dx)
  wrv[0] = 0;
  wrv[1] = addr >> 4;

  // "Universal startup algorithm."
  // Send INIT (level-triggered) interrupt to reset other CPU.
  lapicw(ICRHI, apicid<<24);
  102587:	b8 0a 00 00 00       	mov    $0xa,%eax
  10258c:	b2 71                	mov    $0x71,%dl
  10258e:	ee                   	out    %al,(%dx)
  10258f:	c1 e3 18             	shl    $0x18,%ebx
  102592:	b8 c4 00 00 00       	mov    $0xc4,%eax
  102597:	89 da                	mov    %ebx,%edx
  // the AP startup code prior to the [universal startup algorithm]."
  outb(IO_RTC, 0xF);  // offset 0xF is shutdown code
  outb(IO_RTC+1, 0x0A);
  wrv = (ushort*)(0x40<<4 | 0x67);  // Warm reset vector
  wrv[0] = 0;
  wrv[1] = addr >> 4;
  102599:	c1 ee 04             	shr    $0x4,%esi
  10259c:	66 89 35 69 04 00 00 	mov    %si,0x469
  // "Universal startup algorithm."
  // Send INIT (level-triggered) interrupt to reset other CPU.
  lapicw(ICRHI, apicid<<24);
  lapicw(ICRLO, INIT | LEVEL | ASSERT);
  microdelay(200);
  lapicw(ICRLO, INIT | LEVEL);
  1025a3:	c1 ee 08             	shr    $0x8,%esi
  // and the warm reset vector (DWORD based at 40:67) to point at
  // the AP startup code prior to the [universal startup algorithm]."
  outb(IO_RTC, 0xF);  // offset 0xF is shutdown code
  outb(IO_RTC+1, 0x0A);
  wrv = (ushort*)(0x40<<4 | 0x67);  // Warm reset vector
  wrv[0] = 0;
  1025a6:	66 c7 05 67 04 00 00 	movw   $0x0,0x467
  1025ad:	00 00 
  // "Universal startup algorithm."
  // Send INIT (level-triggered) interrupt to reset other CPU.
  lapicw(ICRHI, apicid<<24);
  lapicw(ICRLO, INIT | LEVEL | ASSERT);
  microdelay(200);
  lapicw(ICRLO, INIT | LEVEL);
  1025af:	81 ce 00 06 00 00    	or     $0x600,%esi
  wrv[0] = 0;
  wrv[1] = addr >> 4;

  // "Universal startup algorithm."
  // Send INIT (level-triggered) interrupt to reset other CPU.
  lapicw(ICRHI, apicid<<24);
  1025b5:	e8 f6 fd ff ff       	call   1023b0 <lapicw>
  lapicw(ICRLO, INIT | LEVEL | ASSERT);
  1025ba:	ba 00 c5 00 00       	mov    $0xc500,%edx
  1025bf:	b8 c0 00 00 00       	mov    $0xc0,%eax
  1025c4:	e8 e7 fd ff ff       	call   1023b0 <lapicw>
  microdelay(200);
  lapicw(ICRLO, INIT | LEVEL);
  1025c9:	ba 00 85 00 00       	mov    $0x8500,%edx
  1025ce:	b8 c0 00 00 00       	mov    $0xc0,%eax
  1025d3:	e8 d8 fd ff ff       	call   1023b0 <lapicw>
  // Regular hardware is supposed to only accept a STARTUP
  // when it is in the halted state due to an INIT.  So the second
  // should be ignored, but it is part of the official Intel algorithm.
  // Bochs complains about the second one.  Too bad for Bochs.
  for(i = 0; i < 2; i++){
    lapicw(ICRHI, apicid<<24);
  1025d8:	89 da                	mov    %ebx,%edx
  1025da:	b8 c4 00 00 00       	mov    $0xc4,%eax
  1025df:	e8 cc fd ff ff       	call   1023b0 <lapicw>
    lapicw(ICRLO, STARTUP | (addr>>12));
  1025e4:	89 f2                	mov    %esi,%edx
  1025e6:	b8 c0 00 00 00       	mov    $0xc0,%eax
  1025eb:	e8 c0 fd ff ff       	call   1023b0 <lapicw>
  // Regular hardware is supposed to only accept a STARTUP
  // when it is in the halted state due to an INIT.  So the second
  // should be ignored, but it is part of the official Intel algorithm.
  // Bochs complains about the second one.  Too bad for Bochs.
  for(i = 0; i < 2; i++){
    lapicw(ICRHI, apicid<<24);
  1025f0:	89 da                	mov    %ebx,%edx
  1025f2:	b8 c4 00 00 00       	mov    $0xc4,%eax
  1025f7:	e8 b4 fd ff ff       	call   1023b0 <lapicw>
    lapicw(ICRLO, STARTUP | (addr>>12));
  1025fc:	89 f2                	mov    %esi,%edx
  1025fe:	b8 c0 00 00 00       	mov    $0xc0,%eax
    microdelay(200);
  }
}
  102603:	5b                   	pop    %ebx
  102604:	5e                   	pop    %esi
  102605:	5d                   	pop    %ebp
  // when it is in the halted state due to an INIT.  So the second
  // should be ignored, but it is part of the official Intel algorithm.
  // Bochs complains about the second one.  Too bad for Bochs.
  for(i = 0; i < 2; i++){
    lapicw(ICRHI, apicid<<24);
    lapicw(ICRLO, STARTUP | (addr>>12));
  102606:	e9 a5 fd ff ff       	jmp    1023b0 <lapicw>
  10260b:	90                   	nop    
  10260c:	90                   	nop    
  10260d:	90                   	nop    
  10260e:	90                   	nop    
  10260f:	90                   	nop    

00102610 <mpmain>:
// Common CPU setup code.
// Bootstrap CPU comes here from mainc().
// Other CPUs jump here from bootother.S.
static void
mpmain(void)
{
  102610:	55                   	push   %ebp
  102611:	89 e5                	mov    %esp,%ebp
  102613:	53                   	push   %ebx
  102614:	83 ec 14             	sub    $0x14,%esp
  if(cpunum() != mpbcpu()) {
  102617:	e8 e4 fd ff ff       	call   102400 <cpunum>
  10261c:	89 c3                	mov    %eax,%ebx
  10261e:	e8 fd 01 00 00       	call   102820 <mpbcpu>
  102623:	39 c3                	cmp    %eax,%ebx
  102625:	74 16                	je     10263d <mpmain+0x2d>
    ksegment();
  102627:	e8 44 3a 00 00       	call   106070 <ksegment>
  10262c:	8d 74 26 00          	lea    0x0(%esi),%esi
    lapicinit(cpunum());
  102630:	e8 cb fd ff ff       	call   102400 <cpunum>
  102635:	89 04 24             	mov    %eax,(%esp)
  102638:	e8 13 fe ff ff       	call   102450 <lapicinit>
  }
  vmenable();        // turn on paging
  10263d:	e8 6e 33 00 00       	call   1059b0 <vmenable>
  cprintf("cpu%d: starting\n", cpu->id);
  102642:	65 a1 00 00 00 00    	mov    %gs:0x0,%eax
  102648:	0f b6 00             	movzbl (%eax),%eax
  10264b:	c7 04 24 f0 65 10 00 	movl   $0x1065f0,(%esp)
  102652:	89 44 24 04          	mov    %eax,0x4(%esp)
  102656:	e8 65 de ff ff       	call   1004c0 <cprintf>
  idtinit();       // load idt register
  10265b:	e8 80 24 00 00       	call   104ae0 <idtinit>
  xchg(&cpu->booted, 1);
  102660:	65 8b 15 00 00 00 00 	mov    %gs:0x0,%edx
xchg(volatile uint *addr, uint newval)
{
  uint result;
  
  // The + in "+m" denotes a read-modify-write operand.
  asm volatile("lock; xchgl %0, %1" :
  102667:	b8 01 00 00 00       	mov    $0x1,%eax
  10266c:	f0 87 82 a8 00 00 00 	lock xchg %eax,0xa8(%edx)
  scheduler();     // start running processes
  102673:	e8 88 0b 00 00       	call   103200 <scheduler>
  102678:	90                   	nop    
  102679:	8d b4 26 00 00 00 00 	lea    0x0(%esi),%esi

00102680 <mainc>:
  panic("jkstack");
}

void
mainc(void)
{
  102680:	55                   	push   %ebp
  102681:	89 e5                	mov    %esp,%ebp
  102683:	53                   	push   %ebx
  102684:	83 ec 14             	sub    $0x14,%esp
  cprintf("\ncpu%d: starting xv6\n\n", cpu->id);
  102687:	65 a1 00 00 00 00    	mov    %gs:0x0,%eax
  10268d:	0f b6 00             	movzbl (%eax),%eax
  102690:	c7 04 24 01 66 10 00 	movl   $0x106601,(%esp)
  102697:	89 44 24 04          	mov    %eax,0x4(%esp)
  10269b:	e8 20 de ff ff       	call   1004c0 <cprintf>
  kvmalloc();      // initialize the kernel page table
  1026a0:	e8 ab 35 00 00       	call   105c50 <kvmalloc>
  pinit();         // process table
  1026a5:	e8 c6 11 00 00       	call   103870 <pinit>
  tvinit();        // trap vectors
  1026aa:	e8 61 24 00 00       	call   104b10 <tvinit>
  1026af:	90                   	nop    
  binit();         // buffer cache
  1026b0:	e8 cb da ff ff       	call   100180 <binit>
  fileinit();      // file table
  1026b5:	e8 d6 e8 ff ff       	call   100f90 <fileinit>
  iinit();         // inode cache
  1026ba:	e8 b1 f6 ff ff       	call   101d70 <iinit>
  1026bf:	90                   	nop    
  ideinit();       // disk
  1026c0:	e8 0b f9 ff ff       	call   101fd0 <ideinit>
  if(!ismp)
  1026c5:	a1 84 aa 10 00       	mov    0x10aa84,%eax
  1026ca:	85 c0                	test   %eax,%eax
  1026cc:	0f 84 ab 00 00 00    	je     10277d <mainc+0xfd>
    timerinit();   // uniprocessor timer
  userinit();      // first user process
  1026d2:	e8 e9 0f 00 00       	call   1036c0 <userinit>
  char *stack;

  // Write bootstrap code to unused memory at 0x7000.  The linker has
  // placed the start of bootother.S there.
  code = (uchar *) 0x7000;
  memmove(code, _binary_bootother_start, (uint)_binary_bootother_size);
  1026d7:	c7 44 24 08 6a 00 00 	movl   $0x6a,0x8(%esp)
  1026de:	00 
  1026df:	c7 44 24 04 34 77 10 	movl   $0x107734,0x4(%esp)
  1026e6:	00 
  1026e7:	c7 04 24 00 70 00 00 	movl   $0x7000,(%esp)
  1026ee:	e8 2d 14 00 00       	call   103b20 <memmove>

  for(c = cpus; c < cpus+ncpu; c++){
  1026f3:	69 05 80 b0 10 00 bc 	imul   $0xbc,0x10b080,%eax
  1026fa:	00 00 00 
  1026fd:	05 a0 aa 10 00       	add    $0x10aaa0,%eax
  102702:	3d a0 aa 10 00       	cmp    $0x10aaa0,%eax
  102707:	76 6a                	jbe    102773 <mainc+0xf3>
  102709:	bb a0 aa 10 00       	mov    $0x10aaa0,%ebx
  10270e:	66 90                	xchg   %ax,%ax
    if(c == cpus+cpunum())  // We've started already.
  102710:	e8 eb fc ff ff       	call   102400 <cpunum>
  102715:	69 c0 bc 00 00 00    	imul   $0xbc,%eax,%eax
  10271b:	05 a0 aa 10 00       	add    $0x10aaa0,%eax
  102720:	39 d8                	cmp    %ebx,%eax
  102722:	74 36                	je     10275a <mainc+0xda>
      continue;

    // Fill in %esp, %eip and start code on cpu.
    stack = kalloc();
  102724:	e8 87 fa ff ff       	call   1021b0 <kalloc>
    *(void**)(code-4) = stack + KSTACKSIZE;
    *(void**)(code-8) = mpmain;
  102729:	c7 05 f8 6f 00 00 10 	movl   $0x102610,0x6ff8
  102730:	26 10 00 
    if(c == cpus+cpunum())  // We've started already.
      continue;

    // Fill in %esp, %eip and start code on cpu.
    stack = kalloc();
    *(void**)(code-4) = stack + KSTACKSIZE;
  102733:	05 00 10 00 00       	add    $0x1000,%eax
  102738:	a3 fc 6f 00 00       	mov    %eax,0x6ffc
    *(void**)(code-8) = mpmain;
    lapicstartap(c->id, (uint)code);
  10273d:	c7 44 24 04 00 70 00 	movl   $0x7000,0x4(%esp)
  102744:	00 
  102745:	0f b6 03             	movzbl (%ebx),%eax
  102748:	89 04 24             	mov    %eax,(%esp)
  10274b:	e8 20 fe ff ff       	call   102570 <lapicstartap>

    // Wait for cpu to finish mpmain()
    while(c->booted == 0)
  102750:	8b 83 a8 00 00 00    	mov    0xa8(%ebx),%eax
  102756:	85 c0                	test   %eax,%eax
  102758:	74 f6                	je     102750 <mainc+0xd0>
  // Write bootstrap code to unused memory at 0x7000.  The linker has
  // placed the start of bootother.S there.
  code = (uchar *) 0x7000;
  memmove(code, _binary_bootother_start, (uint)_binary_bootother_size);

  for(c = cpus; c < cpus+ncpu; c++){
  10275a:	69 05 80 b0 10 00 bc 	imul   $0xbc,0x10b080,%eax
  102761:	00 00 00 
  102764:	81 c3 bc 00 00 00    	add    $0xbc,%ebx
  10276a:	05 a0 aa 10 00       	add    $0x10aaa0,%eax
  10276f:	39 d8                	cmp    %ebx,%eax
  102771:	77 9d                	ja     102710 <mainc+0x90>
  userinit();      // first user process
  bootothers();    // start other processors

  // Finish setting up this processor in mpmain.
  mpmain();
}
  102773:	83 c4 14             	add    $0x14,%esp
  102776:	5b                   	pop    %ebx
  102777:	5d                   	pop    %ebp
    timerinit();   // uniprocessor timer
  userinit();      // first user process
  bootothers();    // start other processors

  // Finish setting up this processor in mpmain.
  mpmain();
  102778:	e9 93 fe ff ff       	jmp    102610 <mpmain>
  binit();         // buffer cache
  fileinit();      // file table
  iinit();         // inode cache
  ideinit();       // disk
  if(!ismp)
    timerinit();   // uniprocessor timer
  10277d:	e8 fe 22 00 00       	call   104a80 <timerinit>
  102782:	e9 4b ff ff ff       	jmp    1026d2 <mainc+0x52>
  102787:	89 f6                	mov    %esi,%esi
  102789:	8d bc 27 00 00 00 00 	lea    0x0(%edi),%edi

00102790 <jkstack>:
  jkstack();       // call mainc() on a properly-allocated stack 
}

void
jkstack(void)
{
  102790:	55                   	push   %ebp
  102791:	89 e5                	mov    %esp,%ebp
  102793:	83 ec 08             	sub    $0x8,%esp
  char *kstack = kalloc();
  102796:	e8 15 fa ff ff       	call   1021b0 <kalloc>
  if(!kstack)
  10279b:	85 c0                	test   %eax,%eax
  10279d:	75 0c                	jne    1027ab <jkstack+0x1b>
    panic("jkstack\n");
  10279f:	c7 04 24 18 66 10 00 	movl   $0x106618,(%esp)
  1027a6:	e8 d5 e0 ff ff       	call   100880 <panic>
  char *top = kstack + PGSIZE;
  asm volatile("movl %0,%%esp" : : "r" (top));
  1027ab:	05 00 10 00 00       	add    $0x1000,%eax
  1027b0:	89 c4                	mov    %eax,%esp
  asm volatile("call mainc");
  1027b2:	e8 c9 fe ff ff       	call   102680 <mainc>
  panic("jkstack");
  1027b7:	c7 04 24 21 66 10 00 	movl   $0x106621,(%esp)
  1027be:	e8 bd e0 ff ff       	call   100880 <panic>
  1027c3:	8d b6 00 00 00 00    	lea    0x0(%esi),%esi
  1027c9:	8d bc 27 00 00 00 00 	lea    0x0(%edi),%edi

001027d0 <main>:
void mainc(void);

// Bootstrap processor starts running C code here.
int
main(void)
{
  1027d0:	8d 4c 24 04          	lea    0x4(%esp),%ecx
  1027d4:	83 e4 f0             	and    $0xfffffff0,%esp
  1027d7:	ff 71 fc             	pushl  -0x4(%ecx)
  1027da:	55                   	push   %ebp
  1027db:	89 e5                	mov    %esp,%ebp
  1027dd:	51                   	push   %ecx
  1027de:	83 ec 04             	sub    $0x4,%esp
  mpinit();        // collect info about this machine
  1027e1:	e8 0a 01 00 00       	call   1028f0 <mpinit>
  lapicinit(mpbcpu());
  1027e6:	e8 35 00 00 00       	call   102820 <mpbcpu>
  1027eb:	89 04 24             	mov    %eax,(%esp)
  1027ee:	e8 5d fc ff ff       	call   102450 <lapicinit>
  ksegment();      // set up segments
  1027f3:	e8 78 38 00 00       	call   106070 <ksegment>
  picinit();       // interrupt controller
  1027f8:	e8 23 03 00 00       	call   102b20 <picinit>
  1027fd:	8d 76 00             	lea    0x0(%esi),%esi
  ioapicinit();    // another interrupt controller
  102800:	e8 db f8 ff ff       	call   1020e0 <ioapicinit>
  consoleinit();   // I/O devices & their interrupts
  102805:	e8 e6 d9 ff ff       	call   1001f0 <consoleinit>
  uartinit();      // serial port
  10280a:	e8 61 26 00 00       	call   104e70 <uartinit>
  10280f:	90                   	nop    
  kinit();         // initialize memory allocator
  102810:	e8 5b fa ff ff       	call   102270 <kinit>
  jkstack();       // call mainc() on a properly-allocated stack 
  102815:	e8 76 ff ff ff       	call   102790 <jkstack>
  10281a:	90                   	nop    
  10281b:	90                   	nop    
  10281c:	90                   	nop    
  10281d:	90                   	nop    
  10281e:	90                   	nop    
  10281f:	90                   	nop    

00102820 <mpbcpu>:
uchar ioapicid;

int
mpbcpu(void)
{
  return bcpu-cpus;
  102820:	a1 44 78 10 00       	mov    0x107844,%eax
int ncpu;
uchar ioapicid;

int
mpbcpu(void)
{
  102825:	55                   	push   %ebp
  102826:	89 e5                	mov    %esp,%ebp
  return bcpu-cpus;
}
  102828:	5d                   	pop    %ebp
uchar ioapicid;

int
mpbcpu(void)
{
  return bcpu-cpus;
  102829:	2d a0 aa 10 00       	sub    $0x10aaa0,%eax
  10282e:	c1 f8 02             	sar    $0x2,%eax
  102831:	69 c0 cf 46 7d 67    	imul   $0x677d46cf,%eax,%eax
}
  102837:	c3                   	ret    
  102838:	90                   	nop    
  102839:	8d b4 26 00 00 00 00 	lea    0x0(%esi),%esi

00102840 <sum>:

static uchar
sum(uchar *addr, int len)
{
  102840:	55                   	push   %ebp
  102841:	89 e5                	mov    %esp,%ebp
  102843:	56                   	push   %esi
  102844:	89 c6                	mov    %eax,%esi
  int i, sum;
  
  sum = 0;
  for(i=0; i<len; i++)
  102846:	31 c0                	xor    %eax,%eax
  102848:	85 d2                	test   %edx,%edx
  return bcpu-cpus;
}

static uchar
sum(uchar *addr, int len)
{
  10284a:	53                   	push   %ebx
  10284b:	89 d3                	mov    %edx,%ebx
  int i, sum;
  
  sum = 0;
  for(i=0; i<len; i++)
  10284d:	7e 14                	jle    102863 <sum+0x23>
  10284f:	31 c9                	xor    %ecx,%ecx
  102851:	31 d2                	xor    %edx,%edx
    sum += addr[i];
  102853:	0f b6 04 31          	movzbl (%ecx,%esi,1),%eax
sum(uchar *addr, int len)
{
  int i, sum;
  
  sum = 0;
  for(i=0; i<len; i++)
  102857:	83 c1 01             	add    $0x1,%ecx
    sum += addr[i];
  10285a:	01 c2                	add    %eax,%edx
sum(uchar *addr, int len)
{
  int i, sum;
  
  sum = 0;
  for(i=0; i<len; i++)
  10285c:	39 d9                	cmp    %ebx,%ecx
  10285e:	75 f3                	jne    102853 <sum+0x13>
  102860:	0f b6 c2             	movzbl %dl,%eax
    sum += addr[i];
  return sum;
}
  102863:	5b                   	pop    %ebx
  102864:	5e                   	pop    %esi
  102865:	5d                   	pop    %ebp
  102866:	c3                   	ret    
  102867:	89 f6                	mov    %esi,%esi
  102869:	8d bc 27 00 00 00 00 	lea    0x0(%edi),%edi

00102870 <mpsearch1>:

// Look for an MP structure in the len bytes at addr.
static struct mp*
mpsearch1(uchar *addr, int len)
{
  102870:	55                   	push   %ebp
  102871:	89 e5                	mov    %esp,%ebp
  102873:	57                   	push   %edi
  102874:	56                   	push   %esi
  102875:	89 c6                	mov    %eax,%esi
  102877:	53                   	push   %ebx
  102878:	89 d3                	mov    %edx,%ebx
  10287a:	83 ec 0c             	sub    $0xc,%esp
  uchar *e, *p;

  cprintf("mpsearch1 0x%x %d\n", addr, len);
  e = addr+len;
  10287d:	8d 3c 1e             	lea    (%esi,%ebx,1),%edi
static struct mp*
mpsearch1(uchar *addr, int len)
{
  uchar *e, *p;

  cprintf("mpsearch1 0x%x %d\n", addr, len);
  102880:	89 54 24 08          	mov    %edx,0x8(%esp)
  102884:	89 44 24 04          	mov    %eax,0x4(%esp)
  102888:	c7 04 24 29 66 10 00 	movl   $0x106629,(%esp)
  10288f:	e8 2c dc ff ff       	call   1004c0 <cprintf>
  e = addr+len;
  for(p = addr; p < e; p += sizeof(struct mp))
  102894:	39 fe                	cmp    %edi,%esi
  102896:	73 45                	jae    1028dd <mpsearch1+0x6d>
  102898:	89 f3                	mov    %esi,%ebx
  10289a:	eb 0b                	jmp    1028a7 <mpsearch1+0x37>
  10289c:	8d 74 26 00          	lea    0x0(%esi),%esi
  1028a0:	83 c3 10             	add    $0x10,%ebx
  1028a3:	39 df                	cmp    %ebx,%edi
  1028a5:	76 36                	jbe    1028dd <mpsearch1+0x6d>
    if(memcmp(p, "_MP_", 4) == 0 && sum(p, sizeof(struct mp)) == 0)
  1028a7:	c7 44 24 08 04 00 00 	movl   $0x4,0x8(%esp)
  1028ae:	00 
  1028af:	c7 44 24 04 3c 66 10 	movl   $0x10663c,0x4(%esp)
  1028b6:	00 
  1028b7:	89 1c 24             	mov    %ebx,(%esp)
  1028ba:	e8 e1 11 00 00       	call   103aa0 <memcmp>
  1028bf:	85 c0                	test   %eax,%eax
  1028c1:	75 dd                	jne    1028a0 <mpsearch1+0x30>
  1028c3:	ba 10 00 00 00       	mov    $0x10,%edx
  1028c8:	89 d8                	mov    %ebx,%eax
  1028ca:	e8 71 ff ff ff       	call   102840 <sum>
  1028cf:	84 c0                	test   %al,%al
  1028d1:	75 cd                	jne    1028a0 <mpsearch1+0x30>
      return (struct mp*)p;
  return 0;
}
  1028d3:	83 c4 0c             	add    $0xc,%esp

  cprintf("mpsearch1 0x%x %d\n", addr, len);
  e = addr+len;
  for(p = addr; p < e; p += sizeof(struct mp))
    if(memcmp(p, "_MP_", 4) == 0 && sum(p, sizeof(struct mp)) == 0)
      return (struct mp*)p;
  1028d6:	89 d8                	mov    %ebx,%eax
  return 0;
}
  1028d8:	5b                   	pop    %ebx
  1028d9:	5e                   	pop    %esi
  1028da:	5f                   	pop    %edi
  1028db:	5d                   	pop    %ebp
  1028dc:	c3                   	ret    
  1028dd:	83 c4 0c             	add    $0xc,%esp
{
  uchar *e, *p;

  cprintf("mpsearch1 0x%x %d\n", addr, len);
  e = addr+len;
  for(p = addr; p < e; p += sizeof(struct mp))
  1028e0:	31 c0                	xor    %eax,%eax
    if(memcmp(p, "_MP_", 4) == 0 && sum(p, sizeof(struct mp)) == 0)
      return (struct mp*)p;
  return 0;
}
  1028e2:	5b                   	pop    %ebx
  1028e3:	5e                   	pop    %esi
  1028e4:	5f                   	pop    %edi
  1028e5:	5d                   	pop    %ebp
  1028e6:	c3                   	ret    
  1028e7:	89 f6                	mov    %esi,%esi
  1028e9:	8d bc 27 00 00 00 00 	lea    0x0(%edi),%edi

001028f0 <mpinit>:
  return conf;
}

void
mpinit(void)
{
  1028f0:	55                   	push   %ebp
  1028f1:	89 e5                	mov    %esp,%ebp
  1028f3:	83 ec 28             	sub    $0x28,%esp
  1028f6:	89 5d f4             	mov    %ebx,-0xc(%ebp)
  1028f9:	89 75 f8             	mov    %esi,-0x8(%ebp)
  1028fc:	89 7d fc             	mov    %edi,-0x4(%ebp)
  uchar *bda;
  uint p;
  struct mp *mp;

  bda = (uchar*)0x400;
  if((p = ((bda[0x0F]<<8)|bda[0x0E]) << 4)){
  1028ff:	0f b6 0d 0f 04 00 00 	movzbl 0x40f,%ecx
  102906:	0f b6 05 0e 04 00 00 	movzbl 0x40e,%eax
  struct mp *mp;
  struct mpconf *conf;
  struct mpproc *proc;
  struct mpioapic *ioapic;

  bcpu = &cpus[0];
  10290d:	c7 05 44 78 10 00 a0 	movl   $0x10aaa0,0x107844
  102914:	aa 10 00 
  uchar *bda;
  uint p;
  struct mp *mp;

  bda = (uchar*)0x400;
  if((p = ((bda[0x0F]<<8)|bda[0x0E]) << 4)){
  102917:	c1 e1 08             	shl    $0x8,%ecx
  10291a:	09 c1                	or     %eax,%ecx
  10291c:	c1 e1 04             	shl    $0x4,%ecx
  10291f:	85 c9                	test   %ecx,%ecx
  102921:	74 4e                	je     102971 <mpinit+0x81>
    if((mp = mpsearch1((uchar*)p, 1024)))
  102923:	ba 00 04 00 00       	mov    $0x400,%edx
  102928:	89 c8                	mov    %ecx,%eax
  10292a:	e8 41 ff ff ff       	call   102870 <mpsearch1>
  10292f:	85 c0                	test   %eax,%eax
  102931:	89 c6                	mov    %eax,%esi
  102933:	74 67                	je     10299c <mpinit+0xac>
mpconfig(struct mp **pmp)
{
  struct mpconf *conf;
  struct mp *mp;

  if((mp = mpsearch()) == 0 || mp->physaddr == 0)
  102935:	8b 5e 04             	mov    0x4(%esi),%ebx
  102938:	85 db                	test   %ebx,%ebx
  10293a:	74 28                	je     102964 <mpinit+0x74>
    return 0;
  conf = (struct mpconf*)mp->physaddr;
  if(memcmp(conf, "PCMP", 4) != 0)
  10293c:	c7 44 24 08 04 00 00 	movl   $0x4,0x8(%esp)
  102943:	00 
  102944:	c7 44 24 04 41 66 10 	movl   $0x106641,0x4(%esp)
  10294b:	00 
  10294c:	89 1c 24             	mov    %ebx,(%esp)
  10294f:	e8 4c 11 00 00       	call   103aa0 <memcmp>
  102954:	85 c0                	test   %eax,%eax
  102956:	75 0c                	jne    102964 <mpinit+0x74>
    return 0;
  if(conf->version != 1 && conf->version != 4)
  102958:	0f b6 43 06          	movzbl 0x6(%ebx),%eax
  10295c:	3c 01                	cmp    $0x1,%al
  10295e:	74 53                	je     1029b3 <mpinit+0xc3>
  102960:	3c 04                	cmp    $0x4,%al
  102962:	74 4f                	je     1029b3 <mpinit+0xc3>
    // Bochs doesn't support IMCR, so this doesn't run on Bochs.
    // But it would on real hardware.
    outb(0x22, 0x70);   // Select IMCR
    outb(0x23, inb(0x23) | 1);  // Mask external interrupts.
  }
}
  102964:	8b 5d f4             	mov    -0xc(%ebp),%ebx
  102967:	8b 75 f8             	mov    -0x8(%ebp),%esi
  10296a:	8b 7d fc             	mov    -0x4(%ebp),%edi
  10296d:	89 ec                	mov    %ebp,%esp
  10296f:	5d                   	pop    %ebp
  102970:	c3                   	ret    
  if((p = ((bda[0x0F]<<8)|bda[0x0E]) << 4)){
    if((mp = mpsearch1((uchar*)p, 1024)))
      return mp;
  } else {
    p = ((bda[0x14]<<8)|bda[0x13])*1024;
    if((mp = mpsearch1((uchar*)p-1024, 1024)))
  102971:	0f b6 05 14 04 00 00 	movzbl 0x414,%eax
  102978:	0f b6 15 13 04 00 00 	movzbl 0x413,%edx
  10297f:	c1 e0 08             	shl    $0x8,%eax
  102982:	09 d0                	or     %edx,%eax
  102984:	ba 00 04 00 00       	mov    $0x400,%edx
  102989:	c1 e0 0a             	shl    $0xa,%eax
  10298c:	2d 00 04 00 00       	sub    $0x400,%eax
  102991:	e8 da fe ff ff       	call   102870 <mpsearch1>
  102996:	85 c0                	test   %eax,%eax
  102998:	89 c6                	mov    %eax,%esi
  10299a:	75 99                	jne    102935 <mpinit+0x45>
      return mp;
  }
  return mpsearch1((uchar*)0xF0000, 0x10000);
  10299c:	ba 00 00 01 00       	mov    $0x10000,%edx
  1029a1:	b8 00 00 0f 00       	mov    $0xf0000,%eax
  1029a6:	e8 c5 fe ff ff       	call   102870 <mpsearch1>
mpconfig(struct mp **pmp)
{
  struct mpconf *conf;
  struct mp *mp;

  if((mp = mpsearch()) == 0 || mp->physaddr == 0)
  1029ab:	85 c0                	test   %eax,%eax
  } else {
    p = ((bda[0x14]<<8)|bda[0x13])*1024;
    if((mp = mpsearch1((uchar*)p-1024, 1024)))
      return mp;
  }
  return mpsearch1((uchar*)0xF0000, 0x10000);
  1029ad:	89 c6                	mov    %eax,%esi
mpconfig(struct mp **pmp)
{
  struct mpconf *conf;
  struct mp *mp;

  if((mp = mpsearch()) == 0 || mp->physaddr == 0)
  1029af:	75 84                	jne    102935 <mpinit+0x45>
  1029b1:	eb b1                	jmp    102964 <mpinit+0x74>
  conf = (struct mpconf*)mp->physaddr;
  if(memcmp(conf, "PCMP", 4) != 0)
    return 0;
  if(conf->version != 1 && conf->version != 4)
    return 0;
  if(sum((uchar*)conf, conf->length) != 0)
  1029b3:	0f b7 53 04          	movzwl 0x4(%ebx),%edx
  1029b7:	89 d8                	mov    %ebx,%eax
  1029b9:	e8 82 fe ff ff       	call   102840 <sum>
  1029be:	84 c0                	test   %al,%al
  1029c0:	75 a2                	jne    102964 <mpinit+0x74>
  struct mpioapic *ioapic;

  bcpu = &cpus[0];
  if((conf = mpconfig(&mp)) == 0)
    return;
  ismp = 1;
  1029c2:	c7 05 84 aa 10 00 01 	movl   $0x1,0x10aa84
  1029c9:	00 00 00 
  lapic = (uint*)conf->lapicaddr;
  1029cc:	8b 43 24             	mov    0x24(%ebx),%eax
  for(p=(uchar*)(conf+1), e=(uchar*)conf+conf->length; p<e; ){
  1029cf:	8d 53 2c             	lea    0x2c(%ebx),%edx

  bcpu = &cpus[0];
  if((conf = mpconfig(&mp)) == 0)
    return;
  ismp = 1;
  lapic = (uint*)conf->lapicaddr;
  1029d2:	a3 78 aa 10 00       	mov    %eax,0x10aa78
  for(p=(uchar*)(conf+1), e=(uchar*)conf+conf->length; p<e; ){
  1029d7:	0f b7 43 04          	movzwl 0x4(%ebx),%eax
  1029db:	01 c3                	add    %eax,%ebx
  1029dd:	39 da                	cmp    %ebx,%edx
  1029df:	89 5d ec             	mov    %ebx,-0x14(%ebp)
  1029e2:	73 60                	jae    102a44 <mpinit+0x154>
